; Listing generated by Microsoft (R) Optimizing Compiler Version 19.16.27048.0 

include listing.inc

INCLUDELIB OLDNAMES

PUBLIC	??_R1A@?0A@EA@_Pad@std@@8			; std::_Pad::`RTTI Base Class Descriptor at (0,-1,0,64)'
PUBLIC	??_R2?$_LaunchPad@V?$unique_ptr@V?$tuple@P8MainGame@@EAAXXZPEAV1@@std@@U?$default_delete@V?$tuple@P8MainGame@@EAAXXZPEAV1@@std@@@2@@std@@@std@@8 ; std::_LaunchPad<std::unique_ptr<std::tuple<void (__cdecl MainGame::*)(void),MainGame *>,std::default_delete<std::tuple<void (__cdecl MainGame::*)(void),MainGame *> > > >::`RTTI Base Class Array'
PUBLIC	??_R3?$_LaunchPad@V?$unique_ptr@V?$tuple@P8MainGame@@EAAXXZPEAV1@@std@@U?$default_delete@V?$tuple@P8MainGame@@EAAXXZPEAV1@@std@@@2@@std@@@std@@8 ; std::_LaunchPad<std::unique_ptr<std::tuple<void (__cdecl MainGame::*)(void),MainGame *>,std::default_delete<std::tuple<void (__cdecl MainGame::*)(void),MainGame *> > > >::`RTTI Class Hierarchy Descriptor'
PUBLIC	??_R1A@?0A@EA@?$_LaunchPad@V?$unique_ptr@V?$tuple@P8MainGame@@EAAXXZPEAV1@@std@@U?$default_delete@V?$tuple@P8MainGame@@EAAXXZPEAV1@@std@@@2@@std@@@std@@8 ; std::_LaunchPad<std::unique_ptr<std::tuple<void (__cdecl MainGame::*)(void),MainGame *>,std::default_delete<std::tuple<void (__cdecl MainGame::*)(void),MainGame *> > > >::`RTTI Base Class Descriptor at (0,-1,0,64)'
PUBLIC	??_R0?AV_Pad@std@@@8				; std::_Pad `RTTI Type Descriptor'
PUBLIC	??_R3_Pad@std@@8				; std::_Pad::`RTTI Class Hierarchy Descriptor'
PUBLIC	??_R0?AV?$_LaunchPad@V?$unique_ptr@V?$tuple@P8MainGame@@EAAXXZPEAV1@@std@@U?$default_delete@V?$tuple@P8MainGame@@EAAXXZPEAV1@@std@@@2@@std@@@std@@@8 ; std::_LaunchPad<std::unique_ptr<std::tuple<void (__cdecl MainGame::*)(void),MainGame *>,std::default_delete<std::tuple<void (__cdecl MainGame::*)(void),MainGame *> > > > `RTTI Type Descriptor'
PUBLIC	??_R2_Pad@std@@8				; std::_Pad::`RTTI Base Class Array'
PUBLIC	??_R4?$_LaunchPad@V?$unique_ptr@V?$tuple@P8MainGame@@EAAXXZPEAV1@@std@@U?$default_delete@V?$tuple@P8MainGame@@EAAXXZPEAV1@@std@@@2@@std@@@std@@6B@ ; std::_LaunchPad<std::unique_ptr<std::tuple<void (__cdecl MainGame::*)(void),MainGame *>,std::default_delete<std::tuple<void (__cdecl MainGame::*)(void),MainGame *> > > >::`RTTI Complete Object Locator'
PUBLIC	??_7?$_LaunchPad@V?$unique_ptr@V?$tuple@P8MainGame@@EAAXXZPEAV1@@std@@U?$default_delete@V?$tuple@P8MainGame@@EAAXXZPEAV1@@std@@@2@@std@@@std@@6B@ ; std::_LaunchPad<std::unique_ptr<std::tuple<void (__cdecl MainGame::*)(void),MainGame *>,std::default_delete<std::tuple<void (__cdecl MainGame::*)(void),MainGame *> > > >::`vftable'
EXTRN	__imp__Mtx_unlock:PROC
EXTRN	__imp__Thrd_join:PROC
EXTRN	__imp__Cnd_init:PROC
EXTRN	__imp__Mtx_destroy:PROC
EXTRN	??_7type_info@@6B@:BYTE				; type_info::`vftable'
EXTRN	__imp__Thrd_id:PROC
EXTRN	__imp__Thrd_start:PROC
EXTRN	__imp__Mtx_init:PROC
EXTRN	__imp__Cnd_wait:PROC
EXTRN	__imp_SDL_PollEvent:PROC
EXTRN	__imp__Cnd_destroy:PROC
EXTRN	__imp__Cnd_do_broadcast_at_thread_exit:PROC
EXTRN	__imp__Mtx_lock:PROC
EXTRN	__imp_terminate:PROC
EXTRN	??3@YAXPEAX_K@Z:PROC				; operator delete
EXTRN	__imp_SDL_Quit:PROC
EXTRN	__imp_?_Throw_C_error@std@@YAXH@Z:PROC
EXTRN	__imp_?_Throw_Cpp_error@std@@YAXH@Z:PROC
EXTRN	__imp_SDL_DestroyWindow:PROC
EXTRN	??2@YAPEAX_K@Z:PROC				; operator new
EXTRN	__imp_SDL_DestroyRenderer:PROC
EXTRN	__imp__Cnd_signal:PROC
;	COMDAT ??_7?$_LaunchPad@V?$unique_ptr@V?$tuple@P8MainGame@@EAAXXZPEAV1@@std@@U?$default_delete@V?$tuple@P8MainGame@@EAAXXZPEAV1@@std@@@2@@std@@@std@@6B@
CONST	SEGMENT
??_7?$_LaunchPad@V?$unique_ptr@V?$tuple@P8MainGame@@EAAXXZPEAV1@@std@@U?$default_delete@V?$tuple@P8MainGame@@EAAXXZPEAV1@@std@@@2@@std@@@std@@6B@ DQ FLAT:??_R4?$_LaunchPad@V?$unique_ptr@V?$tuple@P8MainGame@@EAAXXZPEAV1@@std@@U?$default_delete@V?$tuple@P8MainGame@@EAAXXZPEAV1@@std@@@2@@std@@@std@@6B@ ; std::_LaunchPad<std::unique_ptr<std::tuple<void (__cdecl MainGame::*)(void),MainGame *>,std::default_delete<std::tuple<void (__cdecl MainGame::*)(void),MainGame *> > > >::`vftable'
	DQ	FLAT:?_Go@?$_LaunchPad@V?$unique_ptr@V?$tuple@P8MainGame@@EAAXXZPEAV1@@std@@U?$default_delete@V?$tuple@P8MainGame@@EAAXXZPEAV1@@std@@@2@@std@@@std@@UEAAXXZ
CONST	ENDS
;	COMDAT ??_R4?$_LaunchPad@V?$unique_ptr@V?$tuple@P8MainGame@@EAAXXZPEAV1@@std@@U?$default_delete@V?$tuple@P8MainGame@@EAAXXZPEAV1@@std@@@2@@std@@@std@@6B@
rdata$r	SEGMENT
??_R4?$_LaunchPad@V?$unique_ptr@V?$tuple@P8MainGame@@EAAXXZPEAV1@@std@@U?$default_delete@V?$tuple@P8MainGame@@EAAXXZPEAV1@@std@@@2@@std@@@std@@6B@ DD 01H ; std::_LaunchPad<std::unique_ptr<std::tuple<void (__cdecl MainGame::*)(void),MainGame *>,std::default_delete<std::tuple<void (__cdecl MainGame::*)(void),MainGame *> > > >::`RTTI Complete Object Locator'
	DD	00H
	DD	00H
	DD	imagerel ??_R0?AV?$_LaunchPad@V?$unique_ptr@V?$tuple@P8MainGame@@EAAXXZPEAV1@@std@@U?$default_delete@V?$tuple@P8MainGame@@EAAXXZPEAV1@@std@@@2@@std@@@std@@@8
	DD	imagerel ??_R3?$_LaunchPad@V?$unique_ptr@V?$tuple@P8MainGame@@EAAXXZPEAV1@@std@@U?$default_delete@V?$tuple@P8MainGame@@EAAXXZPEAV1@@std@@@2@@std@@@std@@8
	DD	imagerel ??_R4?$_LaunchPad@V?$unique_ptr@V?$tuple@P8MainGame@@EAAXXZPEAV1@@std@@U?$default_delete@V?$tuple@P8MainGame@@EAAXXZPEAV1@@std@@@2@@std@@@std@@6B@
rdata$r	ENDS
;	COMDAT ??_R2_Pad@std@@8
rdata$r	SEGMENT
??_R2_Pad@std@@8 DD imagerel ??_R1A@?0A@EA@_Pad@std@@8	; std::_Pad::`RTTI Base Class Array'
	ORG $+3
rdata$r	ENDS
;	COMDAT ??_R0?AV?$_LaunchPad@V?$unique_ptr@V?$tuple@P8MainGame@@EAAXXZPEAV1@@std@@U?$default_delete@V?$tuple@P8MainGame@@EAAXXZPEAV1@@std@@@2@@std@@@std@@@8
data$r	SEGMENT
??_R0?AV?$_LaunchPad@V?$unique_ptr@V?$tuple@P8MainGame@@EAAXXZPEAV1@@std@@U?$default_delete@V?$tuple@P8MainGame@@EAAXXZPEAV1@@std@@@2@@std@@@std@@@8 DQ FLAT:??_7type_info@@6B@ ; std::_LaunchPad<std::unique_ptr<std::tuple<void (__cdecl MainGame::*)(void),MainGame *>,std::default_delete<std::tuple<void (__cdecl MainGame::*)(void),MainGame *> > > > `RTTI Type Descriptor'
	DQ	0000000000000000H
	DB	'.?AV?$_LaunchPad@V?$unique_ptr@V?$tuple@P8MainGame@@EAAX'
	DB	'XZPEAV1@@std@@U?$default_delete@V?$tuple@P8MainGame@@EAAXXZPE'
	DB	'AV1@@std@@@2@@std@@@std@@', 00H
data$r	ENDS
;	COMDAT ??_R3_Pad@std@@8
rdata$r	SEGMENT
??_R3_Pad@std@@8 DD 00H					; std::_Pad::`RTTI Class Hierarchy Descriptor'
	DD	00H
	DD	01H
	DD	imagerel ??_R2_Pad@std@@8
rdata$r	ENDS
;	COMDAT ??_R0?AV_Pad@std@@@8
data$r	SEGMENT
??_R0?AV_Pad@std@@@8 DQ FLAT:??_7type_info@@6B@		; std::_Pad `RTTI Type Descriptor'
	DQ	0000000000000000H
	DB	'.?AV_Pad@std@@', 00H
data$r	ENDS
;	COMDAT ??_R1A@?0A@EA@?$_LaunchPad@V?$unique_ptr@V?$tuple@P8MainGame@@EAAXXZPEAV1@@std@@U?$default_delete@V?$tuple@P8MainGame@@EAAXXZPEAV1@@std@@@2@@std@@@std@@8
rdata$r	SEGMENT
??_R1A@?0A@EA@?$_LaunchPad@V?$unique_ptr@V?$tuple@P8MainGame@@EAAXXZPEAV1@@std@@U?$default_delete@V?$tuple@P8MainGame@@EAAXXZPEAV1@@std@@@2@@std@@@std@@8 DD imagerel ??_R0?AV?$_LaunchPad@V?$unique_ptr@V?$tuple@P8MainGame@@EAAXXZPEAV1@@std@@U?$default_delete@V?$tuple@P8MainGame@@EAAXXZPEAV1@@std@@@2@@std@@@std@@@8 ; std::_LaunchPad<std::unique_ptr<std::tuple<void (__cdecl MainGame::*)(void),MainGame *>,std::default_delete<std::tuple<void (__cdecl MainGame::*)(void),MainGame *> > > >::`RTTI Base Class Descriptor at (0,-1,0,64)'
	DD	01H
	DD	00H
	DD	0ffffffffH
	DD	00H
	DD	040H
	DD	imagerel ??_R3?$_LaunchPad@V?$unique_ptr@V?$tuple@P8MainGame@@EAAXXZPEAV1@@std@@U?$default_delete@V?$tuple@P8MainGame@@EAAXXZPEAV1@@std@@@2@@std@@@std@@8
rdata$r	ENDS
;	COMDAT ??_R3?$_LaunchPad@V?$unique_ptr@V?$tuple@P8MainGame@@EAAXXZPEAV1@@std@@U?$default_delete@V?$tuple@P8MainGame@@EAAXXZPEAV1@@std@@@2@@std@@@std@@8
rdata$r	SEGMENT
??_R3?$_LaunchPad@V?$unique_ptr@V?$tuple@P8MainGame@@EAAXXZPEAV1@@std@@U?$default_delete@V?$tuple@P8MainGame@@EAAXXZPEAV1@@std@@@2@@std@@@std@@8 DD 00H ; std::_LaunchPad<std::unique_ptr<std::tuple<void (__cdecl MainGame::*)(void),MainGame *>,std::default_delete<std::tuple<void (__cdecl MainGame::*)(void),MainGame *> > > >::`RTTI Class Hierarchy Descriptor'
	DD	00H
	DD	02H
	DD	imagerel ??_R2?$_LaunchPad@V?$unique_ptr@V?$tuple@P8MainGame@@EAAXXZPEAV1@@std@@U?$default_delete@V?$tuple@P8MainGame@@EAAXXZPEAV1@@std@@@2@@std@@@std@@8
rdata$r	ENDS
;	COMDAT ??_R2?$_LaunchPad@V?$unique_ptr@V?$tuple@P8MainGame@@EAAXXZPEAV1@@std@@U?$default_delete@V?$tuple@P8MainGame@@EAAXXZPEAV1@@std@@@2@@std@@@std@@8
rdata$r	SEGMENT
??_R2?$_LaunchPad@V?$unique_ptr@V?$tuple@P8MainGame@@EAAXXZPEAV1@@std@@U?$default_delete@V?$tuple@P8MainGame@@EAAXXZPEAV1@@std@@@2@@std@@@std@@8 DD imagerel ??_R1A@?0A@EA@?$_LaunchPad@V?$unique_ptr@V?$tuple@P8MainGame@@EAAXXZPEAV1@@std@@U?$default_delete@V?$tuple@P8MainGame@@EAAXXZPEAV1@@std@@@2@@std@@@std@@8 ; std::_LaunchPad<std::unique_ptr<std::tuple<void (__cdecl MainGame::*)(void),MainGame *>,std::default_delete<std::tuple<void (__cdecl MainGame::*)(void),MainGame *> > > >::`RTTI Base Class Array'
	DD	imagerel ??_R1A@?0A@EA@_Pad@std@@8
	ORG $+3
rdata$r	ENDS
;	COMDAT ??_R1A@?0A@EA@_Pad@std@@8
rdata$r	SEGMENT
??_R1A@?0A@EA@_Pad@std@@8 DD imagerel ??_R0?AV_Pad@std@@@8 ; std::_Pad::`RTTI Base Class Descriptor at (0,-1,0,64)'
	DD	00H
	DD	00H
	DD	0ffffffffH
	DD	00H
	DD	040H
	DD	imagerel ??_R3_Pad@std@@8
rdata$r	ENDS
PUBLIC	??$?0PEAVMainGame@@@?$_Tuple_val@PEAVMainGame@@@std@@QEAA@$$QEAPEAVMainGame@@@Z ; std::_Tuple_val<MainGame *>::_Tuple_val<MainGame *><MainGame *>
PUBLIC	??$?0U_Exact_args_t@std@@$0A@@?$tuple@$$V@std@@QEAA@U_Exact_args_t@1@@Z ; std::tuple<>::tuple<><std::_Exact_args_t,0>
PUBLIC	??$forward@AEAPEAV?$tuple@P8MainGame@@EAAXXZPEAV1@@std@@@std@@YAAEAPEAV?$tuple@P8MainGame@@EAAXXZPEAV1@@0@AEAPEAV10@@Z ; std::forward<std::tuple<void (__cdecl MainGame::*)(void),MainGame *> * &>
PUBLIC	??$?0AEAPEAV?$tuple@P8MainGame@@EAAXXZPEAV1@@std@@@?$_Compressed_pair@U?$default_delete@V?$tuple@P8MainGame@@EAAXXZPEAV1@@std@@@std@@PEAV?$tuple@P8MainGame@@EAAXXZPEAV1@@2@$00@std@@QEAA@U_Zero_then_variadic_args_t@1@AEAPEAV?$tuple@P8MainGame@@EAAXXZPEAV1@@1@@Z ; std::_Compressed_pair<std::default_delete<std::tuple<void (__cdecl MainGame::*)(void),MainGame *> >,std::tuple<void (__cdecl MainGame::*)(void),MainGame *> *,1>::_Compressed_pair<std::default_delete<std::tuple<void (__cdecl MainGame::*)(void),MainGame *> >,std::tuple<void (__cdecl MainGame::*)(void),MainGame *> *,1><std::tuple<void (__cdecl MainGame::*)(void),MainGame *> * &>
PUBLIC	??$?0P8MainGame@@EAAXXZ@?$_Tuple_val@P8MainGame@@EAAXXZ@std@@QEAA@$$QEAP8MainGame@@EAAXXZ@Z ; std::_Tuple_val<void (__cdecl MainGame::*)(void)>::_Tuple_val<void (__cdecl MainGame::*)(void)><void (__cdecl MainGame::*)(void)>
PUBLIC	??$?0U_Exact_args_t@std@@PEAVMainGame@@$$V$0A@@?$tuple@PEAVMainGame@@@std@@QEAA@U_Exact_args_t@1@$$QEAPEAVMainGame@@@Z ; std::tuple<MainGame *>::tuple<MainGame *><std::_Exact_args_t,MainGame *,0>
PUBLIC	??$_Call@P8MainGame@@EAAXXZPEAV1@$$V@_Invoker_pmf_pointer@std@@SAXP8MainGame@@EAAXXZ$$QEAPEAV2@@Z ; std::_Invoker_pmf_pointer::_Call<void (__cdecl MainGame::*)(void),MainGame *>
PUBLIC	??$?0U?$default_delete@V?$tuple@P8MainGame@@EAAXXZPEAV1@@std@@@std@@AEAPEAV?$tuple@P8MainGame@@EAAXXZPEAV1@@1@@?$_Compressed_pair@U?$default_delete@V?$tuple@P8MainGame@@EAAXXZPEAV1@@std@@@std@@PEAV?$tuple@P8MainGame@@EAAXXZPEAV1@@2@$00@std@@QEAA@U_One_then_variadic_args_t@1@$$QEAU?$default_delete@V?$tuple@P8MainGame@@EAAXXZPEAV1@@std@@@1@AEAPEAV?$tuple@P8MainGame@@EAAXXZPEAV1@@1@@Z ; std::_Compressed_pair<std::default_delete<std::tuple<void (__cdecl MainGame::*)(void),MainGame *> >,std::tuple<void (__cdecl MainGame::*)(void),MainGame *> *,1>::_Compressed_pair<std::default_delete<std::tuple<void (__cdecl MainGame::*)(void),MainGame *> >,std::tuple<void (__cdecl MainGame::*)(void),MainGame *> *,1><std::default_delete<std::tuple<void (__cdecl MainGame::*)(void),MainGame *> >,std::tuple<void (__cdecl MainGame::*)(void),MainGame *> * &>
PUBLIC	??$invoke@P8MainGame@@EAAXXZPEAV1@@std@@YAX$$QEAP8MainGame@@EAAXXZ$$QEAPEAV1@@Z ; std::invoke<void (__cdecl MainGame::*)(void),MainGame *>
PUBLIC	??$move@AEAPEAVMainGame@@@std@@YA$$QEAPEAVMainGame@@AEAPEAV1@@Z ; std::move<MainGame * &>
PUBLIC	??$get@$00P8MainGame@@EAAXXZPEAV1@@std@@YAAEAPEAVMainGame@@AEAV?$tuple@P8MainGame@@EAAXXZPEAV1@@0@@Z ; std::get<1,void (__cdecl MainGame::*)(void),MainGame *>
PUBLIC	??$move@AEAP8MainGame@@EAAXXZ@std@@YA$$QEAP8MainGame@@EAAXXZAEAP81@EAAXXZ@Z ; std::move<void (__cdecl MainGame::*&)(void)>
PUBLIC	??$get@$0A@P8MainGame@@EAAXXZPEAV1@@std@@YAAEAP8MainGame@@EAAXXZAEAV?$tuple@P8MainGame@@EAAXXZPEAV1@@0@@Z ; std::get<0,void (__cdecl MainGame::*)(void),MainGame *>
PUBLIC	??$?0PEAV?$tuple@P8MainGame@@EAAXXZPEAV1@@std@@@?$_Unique_ptr_base@V?$tuple@P8MainGame@@EAAXXZPEAV1@@std@@U?$default_delete@V?$tuple@P8MainGame@@EAAXXZPEAV1@@std@@@2@@std@@QEAA@PEAV?$tuple@P8MainGame@@EAAXXZPEAV1@@1@@Z ; std::_Unique_ptr_base<std::tuple<void (__cdecl MainGame::*)(void),MainGame *>,std::default_delete<std::tuple<void (__cdecl MainGame::*)(void),MainGame *> > >::_Unique_ptr_base<std::tuple<void (__cdecl MainGame::*)(void),MainGame *>,std::default_delete<std::tuple<void (__cdecl MainGame::*)(void),MainGame *> > ><std::tuple<void (__cdecl MainGame::*)(void),MainGame *> *>
PUBLIC	??$?0U_Exact_args_t@std@@P8MainGame@@EAAXXZPEAV2@$0A@@?$tuple@P8MainGame@@EAAXXZPEAV1@@std@@QEAA@U_Exact_args_t@1@$$QEAP8MainGame@@EAAXXZ$$QEAPEAV3@@Z ; std::tuple<void (__cdecl MainGame::*)(void),MainGame *>::tuple<void (__cdecl MainGame::*)(void),MainGame *><std::_Exact_args_t,void (__cdecl MainGame::*)(void),MainGame *,0>
PUBLIC	??$?0PEAV?$tuple@P8MainGame@@EAAXXZPEAV1@@std@@U?$default_delete@V?$tuple@P8MainGame@@EAAXXZPEAV1@@std@@@1@@?$_Unique_ptr_base@V?$tuple@P8MainGame@@EAAXXZPEAV1@@std@@U?$default_delete@V?$tuple@P8MainGame@@EAAXXZPEAV1@@std@@@2@@std@@QEAA@PEAV?$tuple@P8MainGame@@EAAXXZPEAV1@@1@$$QEAU?$default_delete@V?$tuple@P8MainGame@@EAAXXZPEAV1@@std@@@1@@Z ; std::_Unique_ptr_base<std::tuple<void (__cdecl MainGame::*)(void),MainGame *>,std::default_delete<std::tuple<void (__cdecl MainGame::*)(void),MainGame *> > >::_Unique_ptr_base<std::tuple<void (__cdecl MainGame::*)(void),MainGame *>,std::default_delete<std::tuple<void (__cdecl MainGame::*)(void),MainGame *> > ><std::tuple<void (__cdecl MainGame::*)(void),MainGame *> *,std::default_delete<std::tuple<void (__cdecl MainGame::*)(void),MainGame *> > >
PUBLIC	??$forward@U?$default_delete@V?$tuple@P8MainGame@@EAAXXZPEAV1@@std@@@std@@@std@@YA$$QEAU?$default_delete@V?$tuple@P8MainGame@@EAAXXZPEAV1@@std@@@0@AEAU10@@Z ; std::forward<std::default_delete<std::tuple<void (__cdecl MainGame::*)(void),MainGame *> > >
PUBLIC	??$_Execute@$0A@$00@?$_LaunchPad@V?$unique_ptr@V?$tuple@P8MainGame@@EAAXXZPEAV1@@std@@U?$default_delete@V?$tuple@P8MainGame@@EAAXXZPEAV1@@std@@@2@@std@@@std@@CAXAEAV?$tuple@P8MainGame@@EAAXXZPEAV1@@1@U?$integer_sequence@_K$0A@$00@1@@Z ; std::_LaunchPad<std::unique_ptr<std::tuple<void (__cdecl MainGame::*)(void),MainGame *>,std::default_delete<std::tuple<void (__cdecl MainGame::*)(void),MainGame *> > > >::_Execute<0,1>
PUBLIC	??$?0V?$unique_ptr@V?$tuple@P8MainGame@@EAAXXZPEAV1@@std@@U?$default_delete@V?$tuple@P8MainGame@@EAAXXZPEAV1@@std@@@2@@std@@@?$_LaunchPad@V?$unique_ptr@V?$tuple@P8MainGame@@EAAXXZPEAV1@@std@@U?$default_delete@V?$tuple@P8MainGame@@EAAXXZPEAV1@@std@@@2@@std@@@std@@QEAA@$$QEAV?$unique_ptr@V?$tuple@P8MainGame@@EAAXXZPEAV1@@std@@U?$default_delete@V?$tuple@P8MainGame@@EAAXXZPEAV1@@std@@@2@@1@@Z ; std::_LaunchPad<std::unique_ptr<std::tuple<void (__cdecl MainGame::*)(void),MainGame *>,std::default_delete<std::tuple<void (__cdecl MainGame::*)(void),MainGame *> > > >::_LaunchPad<std::unique_ptr<std::tuple<void (__cdecl MainGame::*)(void),MainGame *>,std::default_delete<std::tuple<void (__cdecl MainGame::*)(void),MainGame *> > > ><std::unique_ptr<std::tuple<void (__cdecl MainGame::*)(void),MainGame *>,std::default_delete<std::tuple<void (__cdecl MainGame::*)(void),MainGame *> > > >
PUBLIC	??$forward@V?$unique_ptr@V?$tuple@P8MainGame@@EAAXXZPEAV1@@std@@U?$default_delete@V?$tuple@P8MainGame@@EAAXXZPEAV1@@std@@@2@@std@@@std@@YA$$QEAV?$unique_ptr@V?$tuple@P8MainGame@@EAAXXZPEAV1@@std@@U?$default_delete@V?$tuple@P8MainGame@@EAAXXZPEAV1@@std@@@2@@0@AEAV10@@Z ; std::forward<std::unique_ptr<std::tuple<void (__cdecl MainGame::*)(void),MainGame *>,std::default_delete<std::tuple<void (__cdecl MainGame::*)(void),MainGame *> > > >
PUBLIC	??$?0U?$default_delete@V?$tuple@P8MainGame@@EAAXXZPEAV1@@std@@@std@@$0A@@?$unique_ptr@V?$tuple@P8MainGame@@EAAXXZPEAV1@@std@@U?$default_delete@V?$tuple@P8MainGame@@EAAXXZPEAV1@@std@@@2@@std@@QEAA@PEAV?$tuple@P8MainGame@@EAAXXZPEAV1@@1@@Z ; std::unique_ptr<std::tuple<void (__cdecl MainGame::*)(void),MainGame *>,std::default_delete<std::tuple<void (__cdecl MainGame::*)(void),MainGame *> > >::unique_ptr<std::tuple<void (__cdecl MainGame::*)(void),MainGame *>,std::default_delete<std::tuple<void (__cdecl MainGame::*)(void),MainGame *> > ><std::default_delete<std::tuple<void (__cdecl MainGame::*)(void),MainGame *> >,0>
PUBLIC	??$?0P8MainGame@@EAAXXZPEAV0@$0A@@?$tuple@P8MainGame@@EAAXXZPEAV1@@std@@QEAA@$$QEAP8MainGame@@EAAXXZ$$QEAPEAV2@@Z ; std::tuple<void (__cdecl MainGame::*)(void),MainGame *>::tuple<void (__cdecl MainGame::*)(void),MainGame *><void (__cdecl MainGame::*)(void),MainGame *,0>
PUBLIC	?_Get_second@?$_Compressed_pair@U?$default_delete@V?$tuple@P8MainGame@@EAAXXZPEAV1@@std@@@std@@PEAV?$tuple@P8MainGame@@EAAXXZPEAV1@@2@$00@std@@QEAAAEAPEAV?$tuple@P8MainGame@@EAAXXZPEAV1@@2@XZ ; std::_Compressed_pair<std::default_delete<std::tuple<void (__cdecl MainGame::*)(void),MainGame *> >,std::tuple<void (__cdecl MainGame::*)(void),MainGame *> *,1>::_Get_second
PUBLIC	?_Myptr@?$_Unique_ptr_base@V?$tuple@P8MainGame@@EAAXXZPEAV1@@std@@U?$default_delete@V?$tuple@P8MainGame@@EAAXXZPEAV1@@std@@@2@@std@@QEAAAEAPEAV?$tuple@P8MainGame@@EAAXXZPEAV1@@2@XZ ; std::_Unique_ptr_base<std::tuple<void (__cdecl MainGame::*)(void),MainGame *>,std::default_delete<std::tuple<void (__cdecl MainGame::*)(void),MainGame *> > >::_Myptr
PUBLIC	?release@?$unique_ptr@V?$tuple@P8MainGame@@EAAXXZPEAV1@@std@@U?$default_delete@V?$tuple@P8MainGame@@EAAXXZPEAV1@@std@@@2@@std@@QEAAPEAV?$tuple@P8MainGame@@EAAXXZPEAV1@@2@XZ ; std::unique_ptr<std::tuple<void (__cdecl MainGame::*)(void),MainGame *>,std::default_delete<std::tuple<void (__cdecl MainGame::*)(void),MainGame *> > >::release
PUBLIC	??0?$unique_ptr@V?$tuple@P8MainGame@@EAAXXZPEAV1@@std@@U?$default_delete@V?$tuple@P8MainGame@@EAAXXZPEAV1@@std@@@2@@std@@QEAA@$$QEAV01@@Z ; std::unique_ptr<std::tuple<void (__cdecl MainGame::*)(void),MainGame *>,std::default_delete<std::tuple<void (__cdecl MainGame::*)(void),MainGame *> > >::unique_ptr<std::tuple<void (__cdecl MainGame::*)(void),MainGame *>,std::default_delete<std::tuple<void (__cdecl MainGame::*)(void),MainGame *> > >
PUBLIC	??D?$unique_ptr@V?$tuple@P8MainGame@@EAAXXZPEAV1@@std@@U?$default_delete@V?$tuple@P8MainGame@@EAAXXZPEAV1@@std@@@2@@std@@QEBAAEAV?$tuple@P8MainGame@@EAAXXZPEAV1@@1@XZ ; std::unique_ptr<std::tuple<void (__cdecl MainGame::*)(void),MainGame *>,std::default_delete<std::tuple<void (__cdecl MainGame::*)(void),MainGame *> > >::operator*
PUBLIC	?__autoclassinit2@?$unique_ptr@V?$tuple@P8MainGame@@EAAXXZPEAV1@@std@@U?$default_delete@V?$tuple@P8MainGame@@EAAXXZPEAV1@@std@@@2@@std@@QEAAX_K@Z ; std::unique_ptr<std::tuple<void (__cdecl MainGame::*)(void),MainGame *>,std::default_delete<std::tuple<void (__cdecl MainGame::*)(void),MainGame *> > >::__autoclassinit2
PUBLIC	?_Run@?$_LaunchPad@V?$unique_ptr@V?$tuple@P8MainGame@@EAAXXZPEAV1@@std@@U?$default_delete@V?$tuple@P8MainGame@@EAAXXZPEAV1@@std@@@2@@std@@@std@@CAXPEAV12@@Z ; std::_LaunchPad<std::unique_ptr<std::tuple<void (__cdecl MainGame::*)(void),MainGame *>,std::default_delete<std::tuple<void (__cdecl MainGame::*)(void),MainGame *> > > >::_Run
PUBLIC	?_Go@?$_LaunchPad@V?$unique_ptr@V?$tuple@P8MainGame@@EAAXXZPEAV1@@std@@U?$default_delete@V?$tuple@P8MainGame@@EAAXXZPEAV1@@std@@@2@@std@@@std@@UEAAXXZ ; std::_LaunchPad<std::unique_ptr<std::tuple<void (__cdecl MainGame::*)(void),MainGame *>,std::default_delete<std::tuple<void (__cdecl MainGame::*)(void),MainGame *> > > >::_Go
PUBLIC	?__autoclassinit2@?$_LaunchPad@V?$unique_ptr@V?$tuple@P8MainGame@@EAAXXZPEAV1@@std@@U?$default_delete@V?$tuple@P8MainGame@@EAAXXZPEAV1@@std@@@2@@std@@@std@@QEAAX_K@Z ; std::_LaunchPad<std::unique_ptr<std::tuple<void (__cdecl MainGame::*)(void),MainGame *>,std::default_delete<std::tuple<void (__cdecl MainGame::*)(void),MainGame *> > > >::__autoclassinit2
PUBLIC	??1?$_LaunchPad@V?$unique_ptr@V?$tuple@P8MainGame@@EAAXXZPEAV1@@std@@U?$default_delete@V?$tuple@P8MainGame@@EAAXXZPEAV1@@std@@@2@@std@@@std@@QEAA@XZ ; std::_LaunchPad<std::unique_ptr<std::tuple<void (__cdecl MainGame::*)(void),MainGame *>,std::default_delete<std::tuple<void (__cdecl MainGame::*)(void),MainGame *> > > >::~_LaunchPad<std::unique_ptr<std::tuple<void (__cdecl MainGame::*)(void),MainGame *>,std::default_delete<std::tuple<void (__cdecl MainGame::*)(void),MainGame *> > > >
PUBLIC	??$_Launch@V?$unique_ptr@V?$tuple@P8MainGame@@EAAXXZPEAV1@@std@@U?$default_delete@V?$tuple@P8MainGame@@EAAXXZPEAV1@@std@@@2@@std@@@std@@YAXPEAU_Thrd_imp_t@@$$QEAV?$unique_ptr@V?$tuple@P8MainGame@@EAAXXZPEAV1@@std@@U?$default_delete@V?$tuple@P8MainGame@@EAAXXZPEAV1@@std@@@2@@0@@Z ; std::_Launch<std::unique_ptr<std::tuple<void (__cdecl MainGame::*)(void),MainGame *>,std::default_delete<std::tuple<void (__cdecl MainGame::*)(void),MainGame *> > > >
PUBLIC	??$make_unique@V?$tuple@P8MainGame@@EAAXXZPEAV1@@std@@P8MainGame@@EAAXXZPEAV3@$0A@@std@@YA?AV?$unique_ptr@V?$tuple@P8MainGame@@EAAXXZPEAV1@@std@@U?$default_delete@V?$tuple@P8MainGame@@EAAXXZPEAV1@@std@@@2@@0@$$QEAP8MainGame@@EAAXXZ$$QEAPEAV2@@Z ; std::make_unique<std::tuple<void (__cdecl MainGame::*)(void),MainGame *>,void (__cdecl MainGame::*)(void),MainGame *,0>
PUBLIC	??$forward@PEAVMainGame@@@std@@YA$$QEAPEAVMainGame@@AEAPEAV1@@Z ; std::forward<MainGame *>
PUBLIC	??$forward@P8MainGame@@EAAXXZ@std@@YA$$QEAP8MainGame@@EAAXXZAEAP81@EAAXXZ@Z ; std::forward<void (__cdecl MainGame::*)(void)>
PUBLIC	?_Get_second@?$_Compressed_pair@U?$default_delete@V?$tuple@P8MainGame@@EAAXXZPEAV1@@std@@@std@@PEAV?$tuple@P8MainGame@@EAAXXZPEAV1@@2@$00@std@@QEBAAEBQEAV?$tuple@P8MainGame@@EAAXXZPEAV1@@2@XZ ; std::_Compressed_pair<std::default_delete<std::tuple<void (__cdecl MainGame::*)(void),MainGame *> >,std::tuple<void (__cdecl MainGame::*)(void),MainGame *> *,1>::_Get_second
PUBLIC	?_Myptr@?$_Unique_ptr_base@V?$tuple@P8MainGame@@EAAXXZPEAV1@@std@@U?$default_delete@V?$tuple@P8MainGame@@EAAXXZPEAV1@@std@@@2@@std@@QEBAAEBQEAV?$tuple@P8MainGame@@EAAXXZPEAV1@@2@XZ ; std::_Unique_ptr_base<std::tuple<void (__cdecl MainGame::*)(void),MainGame *>,std::default_delete<std::tuple<void (__cdecl MainGame::*)(void),MainGame *> > >::_Myptr
PUBLIC	?_Get_first@?$_Compressed_pair@U?$default_delete@V?$tuple@P8MainGame@@EAAXXZPEAV1@@std@@@std@@PEAV?$tuple@P8MainGame@@EAAXXZPEAV1@@2@$00@std@@QEAAAEAU?$default_delete@V?$tuple@P8MainGame@@EAAXXZPEAV1@@std@@@2@XZ ; std::_Compressed_pair<std::default_delete<std::tuple<void (__cdecl MainGame::*)(void),MainGame *> >,std::tuple<void (__cdecl MainGame::*)(void),MainGame *> *,1>::_Get_first
PUBLIC	??R?$default_delete@V?$tuple@P8MainGame@@EAAXXZPEAV1@@std@@@std@@QEBAXPEAV?$tuple@P8MainGame@@EAAXXZPEAV1@@1@@Z ; std::default_delete<std::tuple<void (__cdecl MainGame::*)(void),MainGame *> >::operator()
PUBLIC	?get@?$unique_ptr@V?$tuple@P8MainGame@@EAAXXZPEAV1@@std@@U?$default_delete@V?$tuple@P8MainGame@@EAAXXZPEAV1@@std@@@2@@std@@QEBAPEAV?$tuple@P8MainGame@@EAAXXZPEAV1@@2@XZ ; std::unique_ptr<std::tuple<void (__cdecl MainGame::*)(void),MainGame *>,std::default_delete<std::tuple<void (__cdecl MainGame::*)(void),MainGame *> > >::get
PUBLIC	?get_deleter@?$_Unique_ptr_base@V?$tuple@P8MainGame@@EAAXXZPEAV1@@std@@U?$default_delete@V?$tuple@P8MainGame@@EAAXXZPEAV1@@std@@@2@@std@@QEAAAEAU?$default_delete@V?$tuple@P8MainGame@@EAAXXZPEAV1@@std@@@2@XZ ; std::_Unique_ptr_base<std::tuple<void (__cdecl MainGame::*)(void),MainGame *>,std::default_delete<std::tuple<void (__cdecl MainGame::*)(void),MainGame *> > >::get_deleter
PUBLIC	??1?$unique_ptr@V?$tuple@P8MainGame@@EAAXXZPEAV1@@std@@U?$default_delete@V?$tuple@P8MainGame@@EAAXXZPEAV1@@std@@@2@@std@@QEAA@XZ ; std::unique_ptr<std::tuple<void (__cdecl MainGame::*)(void),MainGame *>,std::default_delete<std::tuple<void (__cdecl MainGame::*)(void),MainGame *> > >::~unique_ptr<std::tuple<void (__cdecl MainGame::*)(void),MainGame *>,std::default_delete<std::tuple<void (__cdecl MainGame::*)(void),MainGame *> > >
PUBLIC	??$?0P8MainGame@@EAAXXZPEAV0@X@thread@std@@QEAA@$$QEAP8MainGame@@EAAXXZ$$QEAPEAV2@@Z ; std::thread::thread<void (__cdecl MainGame::*)(void),MainGame *,void>
PUBLIC	?updateGame@MainGame@@AEAAXXZ			; MainGame::updateGame
PUBLIC	?processInput@MainGame@@AEAAXXZ			; MainGame::processInput
PUBLIC	??8std@@YA_NVid@thread@0@0@Z			; std::operator==
PUBLIC	?get_id@this_thread@std@@YA?AVid@thread@2@XZ	; std::this_thread::get_id
PUBLIC	?get_id@thread@std@@QEBA?AVid@12@XZ		; std::thread::get_id
PUBLIC	?join@thread@std@@QEAAXXZ			; std::thread::join
PUBLIC	??0id@thread@std@@AEAA@I@Z			; std::thread::id::id
PUBLIC	?joinable@thread@std@@QEBA_NXZ			; std::thread::joinable
PUBLIC	??1thread@std@@QEAA@XZ				; std::thread::~thread
PUBLIC	?__autoclassinit2@_Auto_mtx@std@@QEAAX_K@Z	; std::_Auto_mtx::__autoclassinit2
PUBLIC	?__autoclassinit2@_Auto_cnd@std@@QEAAX_K@Z	; std::_Auto_cnd::__autoclassinit2
PUBLIC	?_Call_func@_Pad@std@@CAIPEAX@Z			; std::_Pad::_Call_func
PUBLIC	?_Release@_Pad@std@@QEAAXXZ			; std::_Pad::_Release
PUBLIC	?_Launch@_Pad@std@@QEAAXPEAU_Thrd_imp_t@@@Z	; std::_Pad::_Launch
PUBLIC	??1_Pad@std@@QEAA@XZ				; std::_Pad::~_Pad
PUBLIC	??0_Pad@std@@QEAA@XZ				; std::_Pad::_Pad
PUBLIC	?_Release@_Auto_mtx@std@@QEAAXXZ		; std::_Auto_mtx::_Release
PUBLIC	??1_Auto_mtx@std@@QEAA@XZ			; std::_Auto_mtx::~_Auto_mtx
PUBLIC	??0_Auto_mtx@std@@QEAA@PEAU_Mtx_internal_imp_t@@@Z ; std::_Auto_mtx::_Auto_mtx
PUBLIC	?_Release@_Auto_cnd@std@@QEAAXXZ		; std::_Auto_cnd::_Release
PUBLIC	??1_Auto_cnd@std@@QEAA@XZ			; std::_Auto_cnd::~_Auto_cnd
PUBLIC	??0_Auto_cnd@std@@QEAA@PEAU_Cnd_internal_imp_t@@@Z ; std::_Auto_cnd::_Auto_cnd
PUBLIC	?_Cnd_signalX@std@@YAHPEAU_Cnd_internal_imp_t@@@Z ; std::_Cnd_signalX
PUBLIC	?_Cnd_waitX@std@@YAHPEAU_Cnd_internal_imp_t@@PEAU_Mtx_internal_imp_t@@@Z ; std::_Cnd_waitX
PUBLIC	?_Cnd_initX@std@@YAHPEAPEAU_Cnd_internal_imp_t@@@Z ; std::_Cnd_initX
PUBLIC	?_Mtx_unlockX@std@@YAHPEAU_Mtx_internal_imp_t@@@Z ; std::_Mtx_unlockX
PUBLIC	?_Mtx_lockX@std@@YAHPEAU_Mtx_internal_imp_t@@@Z	; std::_Mtx_lockX
PUBLIC	?_Mtx_initX@std@@YAHPEAPEAU_Mtx_internal_imp_t@@H@Z ; std::_Mtx_initX
PUBLIC	?_Thrd_startX@std@@YAHPEAU_Thrd_imp_t@@P6AIPEAX@Z1@Z ; std::_Thrd_startX
PUBLIC	?_Check_C_return@std@@YAHH@Z			; std::_Check_C_return
PUBLIC	?run@MainGame@@QEAAXXZ				; MainGame::run
PUBLIC	??1MainGame@@QEAA@XZ				; MainGame::~MainGame
PUBLIC	??0MainGame@@QEAA@XZ				; MainGame::MainGame
;	COMDAT pdata
pdata	SEGMENT
$pdata$??$?0V?$unique_ptr@V?$tuple@P8MainGame@@EAAXXZPEAV1@@std@@U?$default_delete@V?$tuple@P8MainGame@@EAAXXZPEAV1@@std@@@2@@std@@@?$_LaunchPad@V?$unique_ptr@V?$tuple@P8MainGame@@EAAXXZPEAV1@@std@@U?$default_delete@V?$tuple@P8MainGame@@EAAXXZPEAV1@@std@@@2@@std@@@std@@QEAA@$$QEAV?$unique_ptr@V?$tuple@P8MainGame@@EAAXXZPEAV1@@std@@U?$default_delete@V?$tuple@P8MainGame@@EAAXXZPEAV1@@std@@@2@@1@@Z DD imagerel $LN76
	DD	imagerel $LN76+220
	DD	imagerel $unwind$??$?0V?$unique_ptr@V?$tuple@P8MainGame@@EAAXXZPEAV1@@std@@U?$default_delete@V?$tuple@P8MainGame@@EAAXXZPEAV1@@std@@@2@@std@@@?$_LaunchPad@V?$unique_ptr@V?$tuple@P8MainGame@@EAAXXZPEAV1@@std@@U?$default_delete@V?$tuple@P8MainGame@@EAAXXZPEAV1@@std@@@2@@std@@@std@@QEAA@$$QEAV?$unique_ptr@V?$tuple@P8MainGame@@EAAXXZPEAV1@@std@@U?$default_delete@V?$tuple@P8MainGame@@EAAXXZPEAV1@@std@@@2@@1@@Z
pdata	ENDS
;	COMDAT pdata
pdata	SEGMENT
$pdata$?_Run@?$_LaunchPad@V?$unique_ptr@V?$tuple@P8MainGame@@EAAXXZPEAV1@@std@@U?$default_delete@V?$tuple@P8MainGame@@EAAXXZPEAV1@@std@@@2@@std@@@std@@CAXPEAV12@@Z DD imagerel $LN107
	DD	imagerel $LN107+148
	DD	imagerel $unwind$?_Run@?$_LaunchPad@V?$unique_ptr@V?$tuple@P8MainGame@@EAAXXZPEAV1@@std@@U?$default_delete@V?$tuple@P8MainGame@@EAAXXZPEAV1@@std@@@2@@std@@@std@@CAXPEAV12@@Z
pdata	ENDS
;	COMDAT pdata
pdata	SEGMENT
$pdata$?_Go@?$_LaunchPad@V?$unique_ptr@V?$tuple@P8MainGame@@EAAXXZPEAV1@@std@@U?$default_delete@V?$tuple@P8MainGame@@EAAXXZPEAV1@@std@@@2@@std@@@std@@UEAAXXZ DD imagerel $LN110
	DD	imagerel $LN110+145
	DD	imagerel $unwind$?_Go@?$_LaunchPad@V?$unique_ptr@V?$tuple@P8MainGame@@EAAXXZPEAV1@@std@@U?$default_delete@V?$tuple@P8MainGame@@EAAXXZPEAV1@@std@@@2@@std@@@std@@UEAAXXZ
pdata	ENDS
;	COMDAT pdata
pdata	SEGMENT
$pdata$??1?$_LaunchPad@V?$unique_ptr@V?$tuple@P8MainGame@@EAAXXZPEAV1@@std@@U?$default_delete@V?$tuple@P8MainGame@@EAAXXZPEAV1@@std@@@2@@std@@@std@@QEAA@XZ DD imagerel $LN50
	DD	imagerel $LN50+105
	DD	imagerel $unwind$??1?$_LaunchPad@V?$unique_ptr@V?$tuple@P8MainGame@@EAAXXZPEAV1@@std@@U?$default_delete@V?$tuple@P8MainGame@@EAAXXZPEAV1@@std@@@2@@std@@@std@@QEAA@XZ
pdata	ENDS
;	COMDAT pdata
pdata	SEGMENT
$pdata$??$_Launch@V?$unique_ptr@V?$tuple@P8MainGame@@EAAXXZPEAV1@@std@@U?$default_delete@V?$tuple@P8MainGame@@EAAXXZPEAV1@@std@@@2@@std@@@std@@YAXPEAU_Thrd_imp_t@@$$QEAV?$unique_ptr@V?$tuple@P8MainGame@@EAAXXZPEAV1@@std@@U?$default_delete@V?$tuple@P8MainGame@@EAAXXZPEAV1@@std@@@2@@0@@Z DD imagerel $LN148
	DD	imagerel $LN148+387
	DD	imagerel $unwind$??$_Launch@V?$unique_ptr@V?$tuple@P8MainGame@@EAAXXZPEAV1@@std@@U?$default_delete@V?$tuple@P8MainGame@@EAAXXZPEAV1@@std@@@2@@std@@@std@@YAXPEAU_Thrd_imp_t@@$$QEAV?$unique_ptr@V?$tuple@P8MainGame@@EAAXXZPEAV1@@std@@U?$default_delete@V?$tuple@P8MainGame@@EAAXXZPEAV1@@std@@@2@@0@@Z
pdata	ENDS
;	COMDAT pdata
pdata	SEGMENT
$pdata$??$make_unique@V?$tuple@P8MainGame@@EAAXXZPEAV1@@std@@P8MainGame@@EAAXXZPEAV3@$0A@@std@@YA?AV?$unique_ptr@V?$tuple@P8MainGame@@EAAXXZPEAV1@@std@@U?$default_delete@V?$tuple@P8MainGame@@EAAXXZPEAV1@@std@@@2@@0@$$QEAP8MainGame@@EAAXXZ$$QEAPEAV2@@Z DD imagerel $LN47
	DD	imagerel $LN47+74
	DD	imagerel $unwind$??$make_unique@V?$tuple@P8MainGame@@EAAXXZPEAV1@@std@@P8MainGame@@EAAXXZPEAV3@$0A@@std@@YA?AV?$unique_ptr@V?$tuple@P8MainGame@@EAAXXZPEAV1@@std@@U?$default_delete@V?$tuple@P8MainGame@@EAAXXZPEAV1@@std@@@2@@0@$$QEAP8MainGame@@EAAXXZ$$QEAPEAV2@@Z
pdata	ENDS
;	COMDAT pdata
pdata	SEGMENT
$pdata$??$?0P8MainGame@@EAAXXZPEAV0@X@thread@std@@QEAA@$$QEAP8MainGame@@EAAXXZ$$QEAPEAV2@@Z DD imagerel $LN78
	DD	imagerel $LN78+118
	DD	imagerel $unwind$??$?0P8MainGame@@EAAXXZPEAV0@X@thread@std@@QEAA@$$QEAP8MainGame@@EAAXXZ$$QEAPEAV2@@Z
pdata	ENDS
;	COMDAT pdata
pdata	SEGMENT
$pdata$?processInput@MainGame@@AEAAXXZ DD imagerel $LN12
	DD	imagerel $LN12+96
	DD	imagerel $unwind$?processInput@MainGame@@AEAAXXZ
pdata	ENDS
;	COMDAT pdata
pdata	SEGMENT
$pdata$?get_id@this_thread@std@@YA?AVid@thread@2@XZ DD imagerel $LN7
	DD	imagerel $LN7+26
	DD	imagerel $unwind$?get_id@this_thread@std@@YA?AVid@thread@2@XZ
pdata	ENDS
;	COMDAT pdata
pdata	SEGMENT
$pdata$?join@thread@std@@QEAAXXZ DD imagerel $LN23
	DD	imagerel $LN23+113
	DD	imagerel $unwind$?join@thread@std@@QEAAXXZ
pdata	ENDS
;	COMDAT pdata
pdata	SEGMENT
$pdata$??1thread@std@@QEAA@XZ DD imagerel $LN9
	DD	imagerel $LN9+22
	DD	imagerel $unwind$??1thread@std@@QEAA@XZ
pdata	ENDS
;	COMDAT pdata
pdata	SEGMENT
$pdata$?_Call_func@_Pad@std@@CAIPEAX@Z DD imagerel $LN4
	DD	imagerel $LN4+16
	DD	imagerel $unwind$?_Call_func@_Pad@std@@CAIPEAX@Z
pdata	ENDS
;	COMDAT pdata
pdata	SEGMENT
$pdata$?_Release@_Pad@std@@QEAAXXZ DD imagerel $LN19
	DD	imagerel $LN19+91
	DD	imagerel $unwind$?_Release@_Pad@std@@QEAAXXZ
pdata	ENDS
;	COMDAT pdata
pdata	SEGMENT
$pdata$?_Launch@_Pad@std@@QEAAXPEAU_Thrd_imp_t@@@Z DD imagerel $LN19
	DD	imagerel $LN19+102
	DD	imagerel $unwind$?_Launch@_Pad@std@@QEAAXPEAU_Thrd_imp_t@@@Z
pdata	ENDS
;	COMDAT pdata
pdata	SEGMENT
$pdata$??1_Pad@std@@QEAA@XZ DD imagerel $LN24
	DD	imagerel $LN24+81
	DD	imagerel $unwind$??1_Pad@std@@QEAA@XZ
pdata	ENDS
;	COMDAT pdata
pdata	SEGMENT
$pdata$??0_Pad@std@@QEAA@XZ DD imagerel $LN40
	DD	imagerel $LN40+178
	DD	imagerel $unwind$??0_Pad@std@@QEAA@XZ
pdata	ENDS
;	COMDAT pdata
pdata	SEGMENT
$pdata$?_Cnd_signalX@std@@YAHPEAU_Cnd_internal_imp_t@@@Z DD imagerel $LN8
	DD	imagerel $LN8+34
	DD	imagerel $unwind$?_Cnd_signalX@std@@YAHPEAU_Cnd_internal_imp_t@@@Z
pdata	ENDS
;	COMDAT pdata
pdata	SEGMENT
$pdata$?_Cnd_waitX@std@@YAHPEAU_Cnd_internal_imp_t@@PEAU_Mtx_internal_imp_t@@@Z DD imagerel $LN8
	DD	imagerel $LN8+34
	DD	imagerel $unwind$?_Cnd_waitX@std@@YAHPEAU_Cnd_internal_imp_t@@PEAU_Mtx_internal_imp_t@@@Z
pdata	ENDS
;	COMDAT pdata
pdata	SEGMENT
$pdata$?_Cnd_initX@std@@YAHPEAPEAU_Cnd_internal_imp_t@@@Z DD imagerel $LN8
	DD	imagerel $LN8+34
	DD	imagerel $unwind$?_Cnd_initX@std@@YAHPEAPEAU_Cnd_internal_imp_t@@@Z
pdata	ENDS
;	COMDAT pdata
pdata	SEGMENT
$pdata$?_Mtx_unlockX@std@@YAHPEAU_Mtx_internal_imp_t@@@Z DD imagerel $LN8
	DD	imagerel $LN8+34
	DD	imagerel $unwind$?_Mtx_unlockX@std@@YAHPEAU_Mtx_internal_imp_t@@@Z
pdata	ENDS
;	COMDAT pdata
pdata	SEGMENT
$pdata$?_Mtx_lockX@std@@YAHPEAU_Mtx_internal_imp_t@@@Z DD imagerel $LN8
	DD	imagerel $LN8+34
	DD	imagerel $unwind$?_Mtx_lockX@std@@YAHPEAU_Mtx_internal_imp_t@@@Z
pdata	ENDS
;	COMDAT pdata
pdata	SEGMENT
$pdata$?_Mtx_initX@std@@YAHPEAPEAU_Mtx_internal_imp_t@@H@Z DD imagerel $LN8
	DD	imagerel $LN8+39
	DD	imagerel $unwind$?_Mtx_initX@std@@YAHPEAPEAU_Mtx_internal_imp_t@@H@Z
pdata	ENDS
;	COMDAT pdata
pdata	SEGMENT
$pdata$?_Thrd_startX@std@@YAHPEAU_Thrd_imp_t@@P6AIPEAX@Z1@Z DD imagerel $LN8
	DD	imagerel $LN8+50
	DD	imagerel $unwind$?_Thrd_startX@std@@YAHPEAU_Thrd_imp_t@@P6AIPEAX@Z1@Z
pdata	ENDS
;	COMDAT pdata
pdata	SEGMENT
$pdata$?_Check_C_return@std@@YAHH@Z DD imagerel $LN6
	DD	imagerel $LN6+26
	DD	imagerel $unwind$?_Check_C_return@std@@YAHH@Z
pdata	ENDS
;	COMDAT pdata
pdata	SEGMENT
$pdata$?run@MainGame@@QEAAXXZ DD imagerel $LN223
	DD	imagerel $LN223+545
	DD	imagerel $unwind$?run@MainGame@@QEAAXXZ
pdata	ENDS
;	COMDAT pdata
pdata	SEGMENT
$pdata$??1MainGame@@QEAA@XZ DD imagerel $LN5
	DD	imagerel $LN5+40
	DD	imagerel $unwind$??1MainGame@@QEAA@XZ
;	COMDAT xdata
xdata	SEGMENT
$unwind$??1MainGame@@QEAA@XZ DD 020601H
	DD	030023206H
xdata	ENDS
;	COMDAT xdata
xdata	SEGMENT
$ip2state$?run@MainGame@@QEAAXXZ DD imagerel ?run@MainGame@@QEAAXXZ+135
	DD	0ffffffffH
	DD	imagerel ?run@MainGame@@QEAAXXZ+166
	DD	00H
	DD	imagerel ?run@MainGame@@QEAAXXZ+197
	DD	01H
	DD	imagerel ?run@MainGame@@QEAAXXZ+228
	DD	02H
	DD	imagerel ?run@MainGame@@QEAAXXZ+317
	DD	03H
	DD	imagerel ?run@MainGame@@QEAAXXZ+503
	DD	0ffffffffH
xdata	ENDS
;	COMDAT xdata
xdata	SEGMENT
$stateUnwindMap$?run@MainGame@@QEAAXXZ DD 0ffffffffH
	DD	imagerel ?dtor$2@?0??run@MainGame@@QEAAXXZ@4HA
	DD	0ffffffffH
	DD	imagerel ?dtor$0@?0??run@MainGame@@QEAAXXZ@4HA
	DD	01H
	DD	imagerel ?dtor$4@?0??run@MainGame@@QEAAXXZ@4HA
	DD	01H
	DD	imagerel ?dtor$1@?0??run@MainGame@@QEAAXXZ@4HA
xdata	ENDS
;	COMDAT CONST
CONST	SEGMENT
$cppxdata$?run@MainGame@@QEAAXXZ DD 019930522H
	DD	04H
	DD	imagerel $stateUnwindMap$?run@MainGame@@QEAAXXZ
	DD	00H
	DD	00H
	DD	06H
	DD	imagerel $ip2state$?run@MainGame@@QEAAXXZ
	DD	040H
	DD	00H
	DD	01H
CONST	ENDS
;	COMDAT xdata
xdata	SEGMENT
$unwind$?run@MainGame@@QEAAXXZ DD 052c19H
	DD	019341eH
	DD	016010eH
	DD	05002H
	DD	imagerel __GSHandlerCheck_EH
	DD	imagerel $cppxdata$?run@MainGame@@QEAAXXZ
	DD	0aaH
xdata	ENDS
;	COMDAT xdata
xdata	SEGMENT
$unwind$?_Check_C_return@std@@YAHH@Z DD 020601H
	DD	030023206H
xdata	ENDS
;	COMDAT xdata
xdata	SEGMENT
$unwind$?_Thrd_startX@std@@YAHPEAU_Thrd_imp_t@@P6AIPEAX@Z1@Z DD 020601H
	DD	030023206H
xdata	ENDS
;	COMDAT xdata
xdata	SEGMENT
$unwind$?_Mtx_initX@std@@YAHPEAPEAU_Mtx_internal_imp_t@@H@Z DD 020601H
	DD	030023206H
xdata	ENDS
;	COMDAT xdata
xdata	SEGMENT
$unwind$?_Mtx_lockX@std@@YAHPEAU_Mtx_internal_imp_t@@@Z DD 020601H
	DD	030023206H
xdata	ENDS
;	COMDAT xdata
xdata	SEGMENT
$unwind$?_Mtx_unlockX@std@@YAHPEAU_Mtx_internal_imp_t@@@Z DD 020601H
	DD	030023206H
xdata	ENDS
;	COMDAT xdata
xdata	SEGMENT
$unwind$?_Cnd_initX@std@@YAHPEAPEAU_Cnd_internal_imp_t@@@Z DD 020601H
	DD	030023206H
xdata	ENDS
;	COMDAT xdata
xdata	SEGMENT
$unwind$?_Cnd_waitX@std@@YAHPEAU_Cnd_internal_imp_t@@PEAU_Mtx_internal_imp_t@@@Z DD 020601H
	DD	030023206H
xdata	ENDS
;	COMDAT xdata
xdata	SEGMENT
$unwind$?_Cnd_signalX@std@@YAHPEAU_Cnd_internal_imp_t@@@Z DD 020601H
	DD	030023206H
xdata	ENDS
;	COMDAT xdata
xdata	SEGMENT
$ip2state$??0_Pad@std@@QEAA@XZ DD imagerel ??0_Pad@std@@QEAA@XZ+54
	DD	0ffffffffH
	DD	imagerel ??0_Pad@std@@QEAA@XZ+102
	DD	00H
	DD	imagerel ??0_Pad@std@@QEAA@XZ+144
	DD	01H
	DD	imagerel ??0_Pad@std@@QEAA@XZ+162
	DD	0ffffffffH
xdata	ENDS
;	COMDAT xdata
xdata	SEGMENT
$stateUnwindMap$??0_Pad@std@@QEAA@XZ DD 0ffffffffH
	DD	imagerel ?dtor$0@?0???0_Pad@std@@QEAA@XZ@4HA
	DD	00H
	DD	imagerel ?dtor$1@?0???0_Pad@std@@QEAA@XZ@4HA
xdata	ENDS
;	COMDAT CONST
CONST	SEGMENT
$cppxdata$??0_Pad@std@@QEAA@XZ DD 019930522H
	DD	02H
	DD	imagerel $stateUnwindMap$??0_Pad@std@@QEAA@XZ
	DD	00H
	DD	00H
	DD	04H
	DD	imagerel $ip2state$??0_Pad@std@@QEAA@XZ
	DD	020H
	DD	00H
	DD	01H
CONST	ENDS
;	COMDAT xdata
xdata	SEGMENT
$unwind$??0_Pad@std@@QEAA@XZ DD 042319H
	DD	0d3414H
	DD	070029206H
	DD	imagerel __GSHandlerCheck_EH
	DD	imagerel $cppxdata$??0_Pad@std@@QEAA@XZ
	DD	04aH
xdata	ENDS
;	COMDAT xdata
xdata	SEGMENT
$ip2state$??1_Pad@std@@QEAA@XZ DD imagerel ??1_Pad@std@@QEAA@XZ+44
	DD	0ffffffffH
xdata	ENDS
;	COMDAT CONST
CONST	SEGMENT
$cppxdata$??1_Pad@std@@QEAA@XZ DD 019930522H
	DD	00H
	DD	00H
	DD	00H
	DD	00H
	DD	01H
	DD	imagerel $ip2state$??1_Pad@std@@QEAA@XZ
	DD	020H
	DD	00H
	DD	05H
CONST	ENDS
;	COMDAT xdata
xdata	SEGMENT
$unwind$??1_Pad@std@@QEAA@XZ DD 041419H
	DD	093414H
	DD	070025206H
	DD	imagerel __CxxFrameHandler3
	DD	imagerel $cppxdata$??1_Pad@std@@QEAA@XZ
xdata	ENDS
;	COMDAT xdata
xdata	SEGMENT
$unwind$?_Launch@_Pad@std@@QEAAXPEAU_Thrd_imp_t@@@Z DD 020601H
	DD	030023206H
xdata	ENDS
;	COMDAT xdata
xdata	SEGMENT
$unwind$?_Release@_Pad@std@@QEAAXXZ DD 020601H
	DD	030023206H
xdata	ENDS
;	COMDAT xdata
xdata	SEGMENT
$unwind$?_Call_func@_Pad@std@@CAIPEAX@Z DD 010401H
	DD	04204H
xdata	ENDS
;	COMDAT xdata
xdata	SEGMENT
$unwind$??1thread@std@@QEAA@XZ DD 010401H
	DD	04204H
xdata	ENDS
;	COMDAT xdata
xdata	SEGMENT
$unwind$?join@thread@std@@QEAAXXZ DD 020601H
	DD	030025206H
xdata	ENDS
;	COMDAT xdata
xdata	SEGMENT
$unwind$?get_id@this_thread@std@@YA?AVid@thread@2@XZ DD 020601H
	DD	030023206H
xdata	ENDS
;	COMDAT xdata
xdata	SEGMENT
$unwind$?processInput@MainGame@@AEAAXXZ DD 021519H
	DD	03002b206H
	DD	imagerel __GSHandlerCheck
	DD	058H
xdata	ENDS
;	COMDAT xdata
xdata	SEGMENT
$ip2state$??$?0P8MainGame@@EAAXXZPEAV0@X@thread@std@@QEAA@$$QEAP8MainGame@@EAAXXZ$$QEAPEAV2@@Z DD imagerel ??$?0P8MainGame@@EAAXXZPEAV0@X@thread@std@@QEAA@$$QEAP8MainGame@@EAAXXZ$$QEAPEAV2@@Z+39
	DD	0ffffffffH
	DD	imagerel ??$?0P8MainGame@@EAAXXZPEAV0@X@thread@std@@QEAA@$$QEAP8MainGame@@EAAXXZ$$QEAPEAV2@@Z+73
	DD	00H
xdata	ENDS
;	COMDAT xdata
xdata	SEGMENT
$stateUnwindMap$??$?0P8MainGame@@EAAXXZPEAV0@X@thread@std@@QEAA@$$QEAP8MainGame@@EAAXXZ$$QEAPEAV2@@Z DD 0ffffffffH
	DD	imagerel ?dtor$0@?0???$?0P8MainGame@@EAAXXZPEAV0@X@thread@std@@QEAA@$$QEAP8MainGame@@EAAXXZ$$QEAPEAV2@@Z@4HA
xdata	ENDS
;	COMDAT CONST
CONST	SEGMENT
$cppxdata$??$?0P8MainGame@@EAAXXZPEAV0@X@thread@std@@QEAA@$$QEAP8MainGame@@EAAXXZ$$QEAPEAV2@@Z DD 019930522H
	DD	01H
	DD	imagerel $stateUnwindMap$??$?0P8MainGame@@EAAXXZPEAV0@X@thread@std@@QEAA@$$QEAP8MainGame@@EAAXXZ$$QEAPEAV2@@Z
	DD	00H
	DD	00H
	DD	02H
	DD	imagerel $ip2state$??$?0P8MainGame@@EAAXXZPEAV0@X@thread@std@@QEAA@$$QEAP8MainGame@@EAAXXZ$$QEAPEAV2@@Z
	DD	028H
	DD	00H
	DD	01H
CONST	ENDS
;	COMDAT xdata
xdata	SEGMENT
$unwind$??$?0P8MainGame@@EAAXXZPEAV0@X@thread@std@@QEAA@$$QEAP8MainGame@@EAAXXZ$$QEAPEAV2@@Z DD 061911H
	DD	0a6419H
	DD	093414H
	DD	070025206H
	DD	imagerel __CxxFrameHandler3
	DD	imagerel $cppxdata$??$?0P8MainGame@@EAAXXZPEAV0@X@thread@std@@QEAA@$$QEAP8MainGame@@EAAXXZ$$QEAPEAV2@@Z
xdata	ENDS
;	COMDAT xdata
xdata	SEGMENT
$unwind$??$make_unique@V?$tuple@P8MainGame@@EAAXXZPEAV1@@std@@P8MainGame@@EAAXXZPEAV3@$0A@@std@@YA?AV?$unique_ptr@V?$tuple@P8MainGame@@EAAXXZPEAV1@@std@@U?$default_delete@V?$tuple@P8MainGame@@EAAXXZPEAV1@@std@@@2@@0@$$QEAP8MainGame@@EAAXXZ$$QEAPEAV2@@Z DD 060f01H
	DD	0a640fH
	DD	09340fH
	DD	0700b520fH
xdata	ENDS
;	COMDAT xdata
xdata	SEGMENT
$ip2state$??$_Launch@V?$unique_ptr@V?$tuple@P8MainGame@@EAAXXZPEAV1@@std@@U?$default_delete@V?$tuple@P8MainGame@@EAAXXZPEAV1@@std@@@2@@std@@@std@@YAXPEAU_Thrd_imp_t@@$$QEAV?$unique_ptr@V?$tuple@P8MainGame@@EAAXXZPEAV1@@std@@U?$default_delete@V?$tuple@P8MainGame@@EAAXXZPEAV1@@std@@@2@@0@@Z DD imagerel ??$_Launch@V?$unique_ptr@V?$tuple@P8MainGame@@EAAXXZPEAV1@@std@@U?$default_delete@V?$tuple@P8MainGame@@EAAXXZPEAV1@@std@@@2@@std@@@std@@YAXPEAU_Thrd_imp_t@@$$QEAV?$unique_ptr@V?$tuple@P8MainGame@@EAAXXZPEAV1@@std@@U?$default_delete@V?$tuple@P8MainGame@@EAAXXZPEAV1@@std@@@2@@0@@Z+88
	DD	0ffffffffH
	DD	imagerel ??$_Launch@V?$unique_ptr@V?$tuple@P8MainGame@@EAAXXZPEAV1@@std@@U?$default_delete@V?$tuple@P8MainGame@@EAAXXZPEAV1@@std@@@2@@std@@@std@@YAXPEAU_Thrd_imp_t@@$$QEAV?$unique_ptr@V?$tuple@P8MainGame@@EAAXXZPEAV1@@std@@U?$default_delete@V?$tuple@P8MainGame@@EAAXXZPEAV1@@std@@@2@@0@@Z+135
	DD	00H
	DD	imagerel ??$_Launch@V?$unique_ptr@V?$tuple@P8MainGame@@EAAXXZPEAV1@@std@@U?$default_delete@V?$tuple@P8MainGame@@EAAXXZPEAV1@@std@@@2@@std@@@std@@YAXPEAU_Thrd_imp_t@@$$QEAV?$unique_ptr@V?$tuple@P8MainGame@@EAAXXZPEAV1@@std@@U?$default_delete@V?$tuple@P8MainGame@@EAAXXZPEAV1@@std@@@2@@0@@Z+173
	DD	01H
	DD	imagerel ??$_Launch@V?$unique_ptr@V?$tuple@P8MainGame@@EAAXXZPEAV1@@std@@U?$default_delete@V?$tuple@P8MainGame@@EAAXXZPEAV1@@std@@@2@@std@@@std@@YAXPEAU_Thrd_imp_t@@$$QEAV?$unique_ptr@V?$tuple@P8MainGame@@EAAXXZPEAV1@@std@@U?$default_delete@V?$tuple@P8MainGame@@EAAXXZPEAV1@@std@@@2@@0@@Z+237
	DD	02H
	DD	imagerel ??$_Launch@V?$unique_ptr@V?$tuple@P8MainGame@@EAAXXZPEAV1@@std@@U?$default_delete@V?$tuple@P8MainGame@@EAAXXZPEAV1@@std@@@2@@std@@@std@@YAXPEAU_Thrd_imp_t@@$$QEAV?$unique_ptr@V?$tuple@P8MainGame@@EAAXXZPEAV1@@std@@U?$default_delete@V?$tuple@P8MainGame@@EAAXXZPEAV1@@std@@@2@@0@@Z+288
	DD	0ffffffffH
	DD	imagerel ??$_Launch@V?$unique_ptr@V?$tuple@P8MainGame@@EAAXXZPEAV1@@std@@U?$default_delete@V?$tuple@P8MainGame@@EAAXXZPEAV1@@std@@@2@@std@@@std@@YAXPEAU_Thrd_imp_t@@$$QEAV?$unique_ptr@V?$tuple@P8MainGame@@EAAXXZPEAV1@@std@@U?$default_delete@V?$tuple@P8MainGame@@EAAXXZPEAV1@@std@@@2@@0@@Z+331
	DD	03H
	DD	imagerel ??$_Launch@V?$unique_ptr@V?$tuple@P8MainGame@@EAAXXZPEAV1@@std@@U?$default_delete@V?$tuple@P8MainGame@@EAAXXZPEAV1@@std@@@2@@std@@@std@@YAXPEAU_Thrd_imp_t@@$$QEAV?$unique_ptr@V?$tuple@P8MainGame@@EAAXXZPEAV1@@std@@U?$default_delete@V?$tuple@P8MainGame@@EAAXXZPEAV1@@std@@@2@@0@@Z+363
	DD	0ffffffffH
xdata	ENDS
;	COMDAT xdata
xdata	SEGMENT
$stateUnwindMap$??$_Launch@V?$unique_ptr@V?$tuple@P8MainGame@@EAAXXZPEAV1@@std@@U?$default_delete@V?$tuple@P8MainGame@@EAAXXZPEAV1@@std@@@2@@std@@@std@@YAXPEAU_Thrd_imp_t@@$$QEAV?$unique_ptr@V?$tuple@P8MainGame@@EAAXXZPEAV1@@std@@U?$default_delete@V?$tuple@P8MainGame@@EAAXXZPEAV1@@std@@@2@@0@@Z DD 0ffffffffH
	DD	imagerel ?dtor$3@?0???$_Launch@V?$unique_ptr@V?$tuple@P8MainGame@@EAAXXZPEAV1@@std@@U?$default_delete@V?$tuple@P8MainGame@@EAAXXZPEAV1@@std@@@2@@std@@@std@@YAXPEAU_Thrd_imp_t@@$$QEAV?$unique_ptr@V?$tuple@P8MainGame@@EAAXXZPEAV1@@std@@U?$default_delete@V?$tuple@P8MainGame@@EAAXXZPEAV1@@std@@@2@@0@@Z@4HA
	DD	00H
	DD	imagerel ?dtor$4@?0???$_Launch@V?$unique_ptr@V?$tuple@P8MainGame@@EAAXXZPEAV1@@std@@U?$default_delete@V?$tuple@P8MainGame@@EAAXXZPEAV1@@std@@@2@@std@@@std@@YAXPEAU_Thrd_imp_t@@$$QEAV?$unique_ptr@V?$tuple@P8MainGame@@EAAXXZPEAV1@@std@@U?$default_delete@V?$tuple@P8MainGame@@EAAXXZPEAV1@@std@@@2@@0@@Z@4HA
	DD	0ffffffffH
	DD	imagerel ?dtor$0@?0???$_Launch@V?$unique_ptr@V?$tuple@P8MainGame@@EAAXXZPEAV1@@std@@U?$default_delete@V?$tuple@P8MainGame@@EAAXXZPEAV1@@std@@@2@@std@@@std@@YAXPEAU_Thrd_imp_t@@$$QEAV?$unique_ptr@V?$tuple@P8MainGame@@EAAXXZPEAV1@@std@@U?$default_delete@V?$tuple@P8MainGame@@EAAXXZPEAV1@@std@@@2@@0@@Z@4HA
	DD	0ffffffffH
	DD	imagerel __imp___std_terminate
xdata	ENDS
;	COMDAT CONST
CONST	SEGMENT
$cppxdata$??$_Launch@V?$unique_ptr@V?$tuple@P8MainGame@@EAAXXZPEAV1@@std@@U?$default_delete@V?$tuple@P8MainGame@@EAAXXZPEAV1@@std@@@2@@std@@@std@@YAXPEAU_Thrd_imp_t@@$$QEAV?$unique_ptr@V?$tuple@P8MainGame@@EAAXXZPEAV1@@std@@U?$default_delete@V?$tuple@P8MainGame@@EAAXXZPEAV1@@std@@@2@@0@@Z DD 019930522H
	DD	04H
	DD	imagerel $stateUnwindMap$??$_Launch@V?$unique_ptr@V?$tuple@P8MainGame@@EAAXXZPEAV1@@std@@U?$default_delete@V?$tuple@P8MainGame@@EAAXXZPEAV1@@std@@@2@@std@@@std@@YAXPEAU_Thrd_imp_t@@$$QEAV?$unique_ptr@V?$tuple@P8MainGame@@EAAXXZPEAV1@@std@@U?$default_delete@V?$tuple@P8MainGame@@EAAXXZPEAV1@@std@@@2@@0@@Z
	DD	00H
	DD	00H
	DD	07H
	DD	imagerel $ip2state$??$_Launch@V?$unique_ptr@V?$tuple@P8MainGame@@EAAXXZPEAV1@@std@@U?$default_delete@V?$tuple@P8MainGame@@EAAXXZPEAV1@@std@@@2@@std@@@std@@YAXPEAU_Thrd_imp_t@@$$QEAV?$unique_ptr@V?$tuple@P8MainGame@@EAAXXZPEAV1@@std@@U?$default_delete@V?$tuple@P8MainGame@@EAAXXZPEAV1@@std@@@2@@0@@Z
	DD	020H
	DD	00H
	DD	01H
CONST	ENDS
;	COMDAT xdata
xdata	SEGMENT
$unwind$??$_Launch@V?$unique_ptr@V?$tuple@P8MainGame@@EAAXXZPEAV1@@std@@U?$default_delete@V?$tuple@P8MainGame@@EAAXXZPEAV1@@std@@@2@@std@@@std@@YAXPEAU_Thrd_imp_t@@$$QEAV?$unique_ptr@V?$tuple@P8MainGame@@EAAXXZPEAV1@@std@@U?$default_delete@V?$tuple@P8MainGame@@EAAXXZPEAV1@@std@@@2@@0@@Z DD 062c19H
	DD	016341eH
	DD	07004f20eH
	DD	050026003H
	DD	imagerel __GSHandlerCheck_EH
	DD	imagerel $cppxdata$??$_Launch@V?$unique_ptr@V?$tuple@P8MainGame@@EAAXXZPEAV1@@std@@U?$default_delete@V?$tuple@P8MainGame@@EAAXXZPEAV1@@std@@@2@@std@@@std@@YAXPEAU_Thrd_imp_t@@$$QEAV?$unique_ptr@V?$tuple@P8MainGame@@EAAXXZPEAV1@@std@@U?$default_delete@V?$tuple@P8MainGame@@EAAXXZPEAV1@@std@@@2@@0@@Z
	DD	072H
xdata	ENDS
;	COMDAT xdata
xdata	SEGMENT
$ip2state$??1?$_LaunchPad@V?$unique_ptr@V?$tuple@P8MainGame@@EAAXXZPEAV1@@std@@U?$default_delete@V?$tuple@P8MainGame@@EAAXXZPEAV1@@std@@@2@@std@@@std@@QEAA@XZ DD imagerel ??1?$_LaunchPad@V?$unique_ptr@V?$tuple@P8MainGame@@EAAXXZPEAV1@@std@@U?$default_delete@V?$tuple@P8MainGame@@EAAXXZPEAV1@@std@@@2@@std@@@std@@QEAA@XZ+67
	DD	00H
xdata	ENDS
;	COMDAT xdata
xdata	SEGMENT
$stateUnwindMap$??1?$_LaunchPad@V?$unique_ptr@V?$tuple@P8MainGame@@EAAXXZPEAV1@@std@@U?$default_delete@V?$tuple@P8MainGame@@EAAXXZPEAV1@@std@@@2@@std@@@std@@QEAA@XZ DD 0ffffffffH
	DD	imagerel __imp___std_terminate
xdata	ENDS
;	COMDAT CONST
CONST	SEGMENT
$cppxdata$??1?$_LaunchPad@V?$unique_ptr@V?$tuple@P8MainGame@@EAAXXZPEAV1@@std@@U?$default_delete@V?$tuple@P8MainGame@@EAAXXZPEAV1@@std@@@2@@std@@@std@@QEAA@XZ DD 019930522H
	DD	01H
	DD	imagerel $stateUnwindMap$??1?$_LaunchPad@V?$unique_ptr@V?$tuple@P8MainGame@@EAAXXZPEAV1@@std@@U?$default_delete@V?$tuple@P8MainGame@@EAAXXZPEAV1@@std@@@2@@std@@@std@@QEAA@XZ
	DD	00H
	DD	00H
	DD	01H
	DD	imagerel $ip2state$??1?$_LaunchPad@V?$unique_ptr@V?$tuple@P8MainGame@@EAAXXZPEAV1@@std@@U?$default_delete@V?$tuple@P8MainGame@@EAAXXZPEAV1@@std@@@2@@std@@@std@@QEAA@XZ
	DD	020H
	DD	00H
	DD	05H
CONST	ENDS
;	COMDAT xdata
xdata	SEGMENT
$unwind$??1?$_LaunchPad@V?$unique_ptr@V?$tuple@P8MainGame@@EAAXXZPEAV1@@std@@U?$default_delete@V?$tuple@P8MainGame@@EAAXXZPEAV1@@std@@@2@@std@@@std@@QEAA@XZ DD 041419H
	DD	093414H
	DD	070025206H
	DD	imagerel __CxxFrameHandler3
	DD	imagerel $cppxdata$??1?$_LaunchPad@V?$unique_ptr@V?$tuple@P8MainGame@@EAAXXZPEAV1@@std@@U?$default_delete@V?$tuple@P8MainGame@@EAAXXZPEAV1@@std@@@2@@std@@@std@@QEAA@XZ
xdata	ENDS
;	COMDAT xdata
xdata	SEGMENT
$ip2state$?_Go@?$_LaunchPad@V?$unique_ptr@V?$tuple@P8MainGame@@EAAXXZPEAV1@@std@@U?$default_delete@V?$tuple@P8MainGame@@EAAXXZPEAV1@@std@@@2@@std@@@std@@UEAAXXZ DD imagerel ?_Go@?$_LaunchPad@V?$unique_ptr@V?$tuple@P8MainGame@@EAAXXZPEAV1@@std@@U?$default_delete@V?$tuple@P8MainGame@@EAAXXZPEAV1@@std@@@2@@std@@@std@@UEAAXXZ+51
	DD	00H
	DD	imagerel ?_Go@?$_LaunchPad@V?$unique_ptr@V?$tuple@P8MainGame@@EAAXXZPEAV1@@std@@U?$default_delete@V?$tuple@P8MainGame@@EAAXXZPEAV1@@std@@@2@@std@@@std@@UEAAXXZ+134
	DD	0ffffffffH
xdata	ENDS
;	COMDAT xdata
xdata	SEGMENT
$stateUnwindMap$?_Go@?$_LaunchPad@V?$unique_ptr@V?$tuple@P8MainGame@@EAAXXZPEAV1@@std@@U?$default_delete@V?$tuple@P8MainGame@@EAAXXZPEAV1@@std@@@2@@std@@@std@@UEAAXXZ DD 0ffffffffH
	DD	imagerel __imp___std_terminate
xdata	ENDS
;	COMDAT CONST
CONST	SEGMENT
$cppxdata$?_Go@?$_LaunchPad@V?$unique_ptr@V?$tuple@P8MainGame@@EAAXXZPEAV1@@std@@U?$default_delete@V?$tuple@P8MainGame@@EAAXXZPEAV1@@std@@@2@@std@@@std@@UEAAXXZ DD 019930522H
	DD	01H
	DD	imagerel $stateUnwindMap$?_Go@?$_LaunchPad@V?$unique_ptr@V?$tuple@P8MainGame@@EAAXXZPEAV1@@std@@U?$default_delete@V?$tuple@P8MainGame@@EAAXXZPEAV1@@std@@@2@@std@@@std@@UEAAXXZ
	DD	00H
	DD	00H
	DD	02H
	DD	imagerel $ip2state$?_Go@?$_LaunchPad@V?$unique_ptr@V?$tuple@P8MainGame@@EAAXXZPEAV1@@std@@U?$default_delete@V?$tuple@P8MainGame@@EAAXXZPEAV1@@std@@@2@@std@@@std@@UEAAXXZ
	DD	020H
	DD	00H
	DD	01H
CONST	ENDS
;	COMDAT xdata
xdata	SEGMENT
$unwind$?_Go@?$_LaunchPad@V?$unique_ptr@V?$tuple@P8MainGame@@EAAXXZPEAV1@@std@@U?$default_delete@V?$tuple@P8MainGame@@EAAXXZPEAV1@@std@@@2@@std@@@std@@UEAAXXZ DD 041411H
	DD	093414H
	DD	070025206H
	DD	imagerel __CxxFrameHandler3
	DD	imagerel $cppxdata$?_Go@?$_LaunchPad@V?$unique_ptr@V?$tuple@P8MainGame@@EAAXXZPEAV1@@std@@U?$default_delete@V?$tuple@P8MainGame@@EAAXXZPEAV1@@std@@@2@@std@@@std@@UEAAXXZ
xdata	ENDS
;	COMDAT xdata
xdata	SEGMENT
$ip2state$?_Run@?$_LaunchPad@V?$unique_ptr@V?$tuple@P8MainGame@@EAAXXZPEAV1@@std@@U?$default_delete@V?$tuple@P8MainGame@@EAAXXZPEAV1@@std@@@2@@std@@@std@@CAXPEAV12@@Z DD imagerel ?_Run@?$_LaunchPad@V?$unique_ptr@V?$tuple@P8MainGame@@EAAXXZPEAV1@@std@@U?$default_delete@V?$tuple@P8MainGame@@EAAXXZPEAV1@@std@@@2@@std@@@std@@CAXPEAV12@@Z+52
	DD	0ffffffffH
xdata	ENDS
;	COMDAT CONST
CONST	SEGMENT
$cppxdata$?_Run@?$_LaunchPad@V?$unique_ptr@V?$tuple@P8MainGame@@EAAXXZPEAV1@@std@@U?$default_delete@V?$tuple@P8MainGame@@EAAXXZPEAV1@@std@@@2@@std@@@std@@CAXPEAV12@@Z DD 019930522H
	DD	00H
	DD	00H
	DD	00H
	DD	00H
	DD	01H
	DD	imagerel $ip2state$?_Run@?$_LaunchPad@V?$unique_ptr@V?$tuple@P8MainGame@@EAAXXZPEAV1@@std@@U?$default_delete@V?$tuple@P8MainGame@@EAAXXZPEAV1@@std@@@2@@std@@@std@@CAXPEAV12@@Z
	DD	020H
	DD	00H
	DD	05H
CONST	ENDS
;	COMDAT xdata
xdata	SEGMENT
$unwind$?_Run@?$_LaunchPad@V?$unique_ptr@V?$tuple@P8MainGame@@EAAXXZPEAV1@@std@@U?$default_delete@V?$tuple@P8MainGame@@EAAXXZPEAV1@@std@@@2@@std@@@std@@CAXPEAV12@@Z DD 041419H
	DD	093414H
	DD	070025206H
	DD	imagerel __CxxFrameHandler3
	DD	imagerel $cppxdata$?_Run@?$_LaunchPad@V?$unique_ptr@V?$tuple@P8MainGame@@EAAXXZPEAV1@@std@@U?$default_delete@V?$tuple@P8MainGame@@EAAXXZPEAV1@@std@@@2@@std@@@std@@CAXPEAV12@@Z
xdata	ENDS
;	COMDAT xdata
xdata	SEGMENT
$ip2state$??$?0V?$unique_ptr@V?$tuple@P8MainGame@@EAAXXZPEAV1@@std@@U?$default_delete@V?$tuple@P8MainGame@@EAAXXZPEAV1@@std@@@2@@std@@@?$_LaunchPad@V?$unique_ptr@V?$tuple@P8MainGame@@EAAXXZPEAV1@@std@@U?$default_delete@V?$tuple@P8MainGame@@EAAXXZPEAV1@@std@@@2@@std@@@std@@QEAA@$$QEAV?$unique_ptr@V?$tuple@P8MainGame@@EAAXXZPEAV1@@std@@U?$default_delete@V?$tuple@P8MainGame@@EAAXXZPEAV1@@std@@@2@@1@@Z DD imagerel ??$?0V?$unique_ptr@V?$tuple@P8MainGame@@EAAXXZPEAV1@@std@@U?$default_delete@V?$tuple@P8MainGame@@EAAXXZPEAV1@@std@@@2@@std@@@?$_LaunchPad@V?$unique_ptr@V?$tuple@P8MainGame@@EAAXXZPEAV1@@std@@U?$default_delete@V?$tuple@P8MainGame@@EAAXXZPEAV1@@std@@@2@@std@@@std@@QEAA@$$QEAV?$unique_ptr@V?$tuple@P8MainGame@@EAAXXZPEAV1@@std@@U?$default_delete@V?$tuple@P8MainGame@@EAAXXZPEAV1@@std@@@2@@1@@Z+67
	DD	0ffffffffH
	DD	imagerel ??$?0V?$unique_ptr@V?$tuple@P8MainGame@@EAAXXZPEAV1@@std@@U?$default_delete@V?$tuple@P8MainGame@@EAAXXZPEAV1@@std@@@2@@std@@@?$_LaunchPad@V?$unique_ptr@V?$tuple@P8MainGame@@EAAXXZPEAV1@@std@@U?$default_delete@V?$tuple@P8MainGame@@EAAXXZPEAV1@@std@@@2@@std@@@std@@QEAA@$$QEAV?$unique_ptr@V?$tuple@P8MainGame@@EAAXXZPEAV1@@std@@U?$default_delete@V?$tuple@P8MainGame@@EAAXXZPEAV1@@std@@@2@@1@@Z+115
	DD	00H
	DD	imagerel ??$?0V?$unique_ptr@V?$tuple@P8MainGame@@EAAXXZPEAV1@@std@@U?$default_delete@V?$tuple@P8MainGame@@EAAXXZPEAV1@@std@@@2@@std@@@?$_LaunchPad@V?$unique_ptr@V?$tuple@P8MainGame@@EAAXXZPEAV1@@std@@U?$default_delete@V?$tuple@P8MainGame@@EAAXXZPEAV1@@std@@@2@@std@@@std@@QEAA@$$QEAV?$unique_ptr@V?$tuple@P8MainGame@@EAAXXZPEAV1@@std@@U?$default_delete@V?$tuple@P8MainGame@@EAAXXZPEAV1@@std@@@2@@1@@Z+157
	DD	01H
	DD	imagerel ??$?0V?$unique_ptr@V?$tuple@P8MainGame@@EAAXXZPEAV1@@std@@U?$default_delete@V?$tuple@P8MainGame@@EAAXXZPEAV1@@std@@@2@@std@@@?$_LaunchPad@V?$unique_ptr@V?$tuple@P8MainGame@@EAAXXZPEAV1@@std@@U?$default_delete@V?$tuple@P8MainGame@@EAAXXZPEAV1@@std@@@2@@std@@@std@@QEAA@$$QEAV?$unique_ptr@V?$tuple@P8MainGame@@EAAXXZPEAV1@@std@@U?$default_delete@V?$tuple@P8MainGame@@EAAXXZPEAV1@@std@@@2@@1@@Z+199
	DD	0ffffffffH
xdata	ENDS
;	COMDAT xdata
xdata	SEGMENT
$stateUnwindMap$??$?0V?$unique_ptr@V?$tuple@P8MainGame@@EAAXXZPEAV1@@std@@U?$default_delete@V?$tuple@P8MainGame@@EAAXXZPEAV1@@std@@@2@@std@@@?$_LaunchPad@V?$unique_ptr@V?$tuple@P8MainGame@@EAAXXZPEAV1@@std@@U?$default_delete@V?$tuple@P8MainGame@@EAAXXZPEAV1@@std@@@2@@std@@@std@@QEAA@$$QEAV?$unique_ptr@V?$tuple@P8MainGame@@EAAXXZPEAV1@@std@@U?$default_delete@V?$tuple@P8MainGame@@EAAXXZPEAV1@@std@@@2@@1@@Z DD 0ffffffffH
	DD	imagerel ?dtor$2@?0???$?0V?$unique_ptr@V?$tuple@P8MainGame@@EAAXXZPEAV1@@std@@U?$default_delete@V?$tuple@P8MainGame@@EAAXXZPEAV1@@std@@@2@@std@@@?$_LaunchPad@V?$unique_ptr@V?$tuple@P8MainGame@@EAAXXZPEAV1@@std@@U?$default_delete@V?$tuple@P8MainGame@@EAAXXZPEAV1@@std@@@2@@std@@@std@@QEAA@$$QEAV?$unique_ptr@V?$tuple@P8MainGame@@EAAXXZPEAV1@@std@@U?$default_delete@V?$tuple@P8MainGame@@EAAXXZPEAV1@@std@@@2@@1@@Z@4HA
	DD	00H
	DD	imagerel ?dtor$3@?0???$?0V?$unique_ptr@V?$tuple@P8MainGame@@EAAXXZPEAV1@@std@@U?$default_delete@V?$tuple@P8MainGame@@EAAXXZPEAV1@@std@@@2@@std@@@?$_LaunchPad@V?$unique_ptr@V?$tuple@P8MainGame@@EAAXXZPEAV1@@std@@U?$default_delete@V?$tuple@P8MainGame@@EAAXXZPEAV1@@std@@@2@@std@@@std@@QEAA@$$QEAV?$unique_ptr@V?$tuple@P8MainGame@@EAAXXZPEAV1@@std@@U?$default_delete@V?$tuple@P8MainGame@@EAAXXZPEAV1@@std@@@2@@1@@Z@4HA
xdata	ENDS
;	COMDAT CONST
CONST	SEGMENT
$cppxdata$??$?0V?$unique_ptr@V?$tuple@P8MainGame@@EAAXXZPEAV1@@std@@U?$default_delete@V?$tuple@P8MainGame@@EAAXXZPEAV1@@std@@@2@@std@@@?$_LaunchPad@V?$unique_ptr@V?$tuple@P8MainGame@@EAAXXZPEAV1@@std@@U?$default_delete@V?$tuple@P8MainGame@@EAAXXZPEAV1@@std@@@2@@std@@@std@@QEAA@$$QEAV?$unique_ptr@V?$tuple@P8MainGame@@EAAXXZPEAV1@@std@@U?$default_delete@V?$tuple@P8MainGame@@EAAXXZPEAV1@@std@@@2@@1@@Z DD 019930522H
	DD	02H
	DD	imagerel $stateUnwindMap$??$?0V?$unique_ptr@V?$tuple@P8MainGame@@EAAXXZPEAV1@@std@@U?$default_delete@V?$tuple@P8MainGame@@EAAXXZPEAV1@@std@@@2@@std@@@?$_LaunchPad@V?$unique_ptr@V?$tuple@P8MainGame@@EAAXXZPEAV1@@std@@U?$default_delete@V?$tuple@P8MainGame@@EAAXXZPEAV1@@std@@@2@@std@@@std@@QEAA@$$QEAV?$unique_ptr@V?$tuple@P8MainGame@@EAAXXZPEAV1@@std@@U?$default_delete@V?$tuple@P8MainGame@@EAAXXZPEAV1@@std@@@2@@1@@Z
	DD	00H
	DD	00H
	DD	04H
	DD	imagerel $ip2state$??$?0V?$unique_ptr@V?$tuple@P8MainGame@@EAAXXZPEAV1@@std@@U?$default_delete@V?$tuple@P8MainGame@@EAAXXZPEAV1@@std@@@2@@std@@@?$_LaunchPad@V?$unique_ptr@V?$tuple@P8MainGame@@EAAXXZPEAV1@@std@@U?$default_delete@V?$tuple@P8MainGame@@EAAXXZPEAV1@@std@@@2@@std@@@std@@QEAA@$$QEAV?$unique_ptr@V?$tuple@P8MainGame@@EAAXXZPEAV1@@std@@U?$default_delete@V?$tuple@P8MainGame@@EAAXXZPEAV1@@std@@@2@@1@@Z
	DD	020H
	DD	00H
	DD	01H
CONST	ENDS
;	COMDAT xdata
xdata	SEGMENT
$unwind$??$?0V?$unique_ptr@V?$tuple@P8MainGame@@EAAXXZPEAV1@@std@@U?$default_delete@V?$tuple@P8MainGame@@EAAXXZPEAV1@@std@@@2@@std@@@?$_LaunchPad@V?$unique_ptr@V?$tuple@P8MainGame@@EAAXXZPEAV1@@std@@U?$default_delete@V?$tuple@P8MainGame@@EAAXXZPEAV1@@std@@@2@@std@@@std@@QEAA@$$QEAV?$unique_ptr@V?$tuple@P8MainGame@@EAAXXZPEAV1@@std@@U?$default_delete@V?$tuple@P8MainGame@@EAAXXZPEAV1@@std@@@2@@1@@Z DD 062819H
	DD	0f6419H
	DD	0e3414H
	DD	070029206H
	DD	imagerel __GSHandlerCheck_EH
	DD	imagerel $cppxdata$??$?0V?$unique_ptr@V?$tuple@P8MainGame@@EAAXXZPEAV1@@std@@U?$default_delete@V?$tuple@P8MainGame@@EAAXXZPEAV1@@std@@@2@@std@@@?$_LaunchPad@V?$unique_ptr@V?$tuple@P8MainGame@@EAAXXZPEAV1@@std@@U?$default_delete@V?$tuple@P8MainGame@@EAAXXZPEAV1@@std@@@2@@std@@@std@@QEAA@$$QEAV?$unique_ptr@V?$tuple@P8MainGame@@EAAXXZPEAV1@@std@@U?$default_delete@V?$tuple@P8MainGame@@EAAXXZPEAV1@@std@@@2@@1@@Z
	DD	04aH
; Function compile flags: /Ogtpy
;	COMDAT ??0MainGame@@QEAA@XZ
_TEXT	SEGMENT
this$ = 8
??0MainGame@@QEAA@XZ PROC				; MainGame::MainGame, COMDAT
; File c:\agil\works\programming\gamedev\sdl2\project\subur\subur\subur\main_game.cpp
; Line 7
	xor	eax, eax
	mov	BYTE PTR [rcx+16], 0
	mov	QWORD PTR [rcx], rax
; Line 8
	mov	QWORD PTR [rcx+8], rax
; Line 9
	mov	rax, rcx
	ret	0
??0MainGame@@QEAA@XZ ENDP				; MainGame::MainGame
_TEXT	ENDS
; Function compile flags: /Ogtpy
;	COMDAT ??1MainGame@@QEAA@XZ
_TEXT	SEGMENT
this$ = 48
??1MainGame@@QEAA@XZ PROC				; MainGame::~MainGame, COMDAT
; File c:\agil\works\programming\gamedev\sdl2\project\subur\subur\subur\main_game.cpp
; Line 12
$LN5:
	push	rbx
	sub	rsp, 32					; 00000020H
	mov	rbx, rcx
; Line 13
	mov	rcx, QWORD PTR [rcx+8]
	call	QWORD PTR __imp_SDL_DestroyRenderer
; Line 14
	mov	rcx, QWORD PTR [rbx]
	call	QWORD PTR __imp_SDL_DestroyWindow
; Line 16
	add	rsp, 32					; 00000020H
	pop	rbx
; Line 15
	rex_jmp	QWORD PTR __imp_SDL_Quit
??1MainGame@@QEAA@XZ ENDP				; MainGame::~MainGame
_TEXT	ENDS
; Function compile flags: /Ogtpy
;	COMDAT ?run@MainGame@@QEAAXXZ
_TEXT	SEGMENT
$T73 = 48
$T66 = 48
$T49 = 48
$T20 = 48
$T76 = 64
updateThread$ = 80
renderThread$ = 96
event$77 = 112
__$ArrayPad$ = 168
this$ = 192
?run@MainGame@@QEAAXXZ PROC				; MainGame::run, COMDAT
; File c:\agil\works\programming\gamedev\sdl2\project\subur\subur\subur\main_game.cpp
; Line 19
$LN223:
	push	rbp
	lea	rbp, QWORD PTR [rsp-87]
	sub	rsp, 176				; 000000b0H
	mov	QWORD PTR $T76[rbp-89], -2
	mov	QWORD PTR [rsp+200], rbx
	mov	rax, QWORD PTR __security_cookie
	xor	rax, rsp
	mov	QWORD PTR __$ArrayPad$[rbp-89], rax
	mov	rbx, rcx
; File c:\agil\works\programming\gamedev\sdl2\project\subur\subur\subur\rendering.cpp
; Line 5
	mov	ecx, 62001				; 0000f231H
	call	QWORD PTR __imp_SDL_Init
; Line 7
	mov	DWORD PTR [rsp+40], 2
	mov	DWORD PTR [rsp+32], 600			; 00000258H
	mov	edx, 805240832				; 2fff0000H
	mov	r9d, 800				; 00000320H
	mov	r8d, edx
	lea	rcx, OFFSET FLAT:??_C@_04IBBNLEM@Game@
	call	QWORD PTR __imp_SDL_CreateWindow
	mov	QWORD PTR [rbx], rax
; Line 15
	mov	edx, -1
	lea	r8d, QWORD PTR [rdx+7]
	mov	rcx, rax
	call	QWORD PTR __imp_SDL_CreateRenderer
	mov	QWORD PTR [rbx+8], rax
; File c:\agil\works\programming\gamedev\sdl2\project\subur\subur\subur\main_game.cpp
; Line 21
	mov	BYTE PTR [rbx+16], 1
; File c:\program files (x86)\microsoft visual studio\2017\community\vc\tools\msvc\14.16.27023\include\memory
; Line 2539
	mov	ecx, 16
	call	??2@YAPEAX_K@Z				; operator new
; File c:\program files (x86)\microsoft visual studio\2017\community\vc\tools\msvc\14.16.27023\include\tuple
; Line 236
	mov	QWORD PTR [rax], rbx
	lea	rcx, OFFSET FLAT:?updateGame@MainGame@@AEAAXXZ ; MainGame::updateGame
	mov	QWORD PTR [rax+8], rcx
; File c:\program files (x86)\microsoft visual studio\2017\community\vc\tools\msvc\14.16.27023\include\xutility
; Line 277
	mov	QWORD PTR $T20[rbp-89], rax
; File c:\program files (x86)\microsoft visual studio\2017\community\vc\tools\msvc\14.16.27023\include\thread
; Line 47
	lea	rdx, QWORD PTR $T20[rbp-89]
	lea	rcx, QWORD PTR updateThread$[rbp-89]
	call	??$_Launch@V?$unique_ptr@V?$tuple@P8MainGame@@EAAXXZPEAV1@@std@@U?$default_delete@V?$tuple@P8MainGame@@EAAXXZPEAV1@@std@@@2@@std@@@std@@YAXPEAU_Thrd_imp_t@@$$QEAV?$unique_ptr@V?$tuple@P8MainGame@@EAAXXZPEAV1@@std@@U?$default_delete@V?$tuple@P8MainGame@@EAAXXZPEAV1@@std@@@2@@0@@Z ; std::_Launch<std::unique_ptr<std::tuple<void (__cdecl MainGame::*)(void),MainGame *>,std::default_delete<std::tuple<void (__cdecl MainGame::*)(void),MainGame *> > > >
	npad	1
; File c:\program files (x86)\microsoft visual studio\2017\community\vc\tools\msvc\14.16.27023\include\memory
; Line 2294
	mov	rcx, QWORD PTR $T20[rbp-89]
	test	rcx, rcx
	je	SHORT $LN81@run
; Line 2084
	mov	edx, 16
	call	??3@YAXPEAX_K@Z				; operator delete
	npad	1
$LN81@run:
; Line 2539
	mov	ecx, 16
	call	??2@YAPEAX_K@Z				; operator new
; File c:\program files (x86)\microsoft visual studio\2017\community\vc\tools\msvc\14.16.27023\include\tuple
; Line 236
	mov	QWORD PTR [rax], rbx
	lea	rcx, OFFSET FLAT:?render@MainGame@@AEAAXXZ ; MainGame::render
	mov	QWORD PTR [rax+8], rcx
; File c:\program files (x86)\microsoft visual studio\2017\community\vc\tools\msvc\14.16.27023\include\xutility
; Line 277
	mov	QWORD PTR $T49[rbp-89], rax
; File c:\program files (x86)\microsoft visual studio\2017\community\vc\tools\msvc\14.16.27023\include\thread
; Line 47
	lea	rdx, QWORD PTR $T49[rbp-89]
	lea	rcx, QWORD PTR renderThread$[rbp-89]
	call	??$_Launch@V?$unique_ptr@V?$tuple@P8MainGame@@EAAXXZPEAV1@@std@@U?$default_delete@V?$tuple@P8MainGame@@EAAXXZPEAV1@@std@@@2@@std@@@std@@YAXPEAU_Thrd_imp_t@@$$QEAV?$unique_ptr@V?$tuple@P8MainGame@@EAAXXZPEAV1@@std@@U?$default_delete@V?$tuple@P8MainGame@@EAAXXZPEAV1@@std@@@2@@0@@Z ; std::_Launch<std::unique_ptr<std::tuple<void (__cdecl MainGame::*)(void),MainGame *>,std::default_delete<std::tuple<void (__cdecl MainGame::*)(void),MainGame *> > > >
	npad	1
; File c:\program files (x86)\microsoft visual studio\2017\community\vc\tools\msvc\14.16.27023\include\memory
; Line 2294
	mov	rcx, QWORD PTR $T49[rbp-89]
	test	rcx, rcx
	je	SHORT $LN155@run
; Line 2084
	mov	edx, 16
	call	??3@YAXPEAX_K@Z				; operator delete
	npad	1
$LN155@run:
; File c:\agil\works\programming\gamedev\sdl2\project\subur\subur\subur\main_game.cpp
; Line 27
	cmp	BYTE PTR [rbx+16], 0
	je	SHORT $LN3@run
$LL2@run:
; Line 41
	lea	rcx, QWORD PTR event$77[rbp-89]
	call	QWORD PTR __imp_SDL_PollEvent
	test	eax, eax
	je	SHORT $LN159@run
$LL158@run:
; Line 43
	cmp	DWORD PTR event$77[rbp-89], 256		; 00000100H
	jne	SHORT $LN217@run
; Line 46
	mov	BYTE PTR [rbx+16], 0
$LN217@run:
; Line 41
	lea	rcx, QWORD PTR event$77[rbp-89]
	call	QWORD PTR __imp_SDL_PollEvent
	test	eax, eax
	jne	SHORT $LL158@run
$LN159@run:
; Line 27
	cmp	BYTE PTR [rbx+16], 0
	jne	SHORT $LL2@run
$LN3@run:
; File c:\program files (x86)\microsoft visual studio\2017\community\vc\tools\msvc\14.16.27023\include\thread
; Line 181
	mov	eax, DWORD PTR updateThread$[rbp-81]
	test	eax, eax
	jne	SHORT $LN166@run
; Line 182
	lea	ecx, QWORD PTR [rax+1]
	call	QWORD PTR __imp_?_Throw_Cpp_error@std@@YAXH@Z
	mov	eax, DWORD PTR updateThread$[rbp-81]
; Line 184
	test	eax, eax
	jne	SHORT $LN166@run
; Line 185
	lea	ecx, QWORD PTR [rax+1]
	call	QWORD PTR __imp_?_Throw_Cpp_error@std@@YAXH@Z
$LN166@run:
; Line 200
	call	QWORD PTR __imp__Thrd_id
; Line 186
	cmp	DWORD PTR updateThread$[rbp-81], eax
	jne	SHORT $LN167@run
; Line 187
	mov	ecx, 5
	call	QWORD PTR __imp_?_Throw_Cpp_error@std@@YAXH@Z
$LN167@run:
; Line 188
	movaps	xmm0, XMMWORD PTR updateThread$[rbp-89]
	movdqa	XMMWORD PTR $T66[rbp-89], xmm0
	xor	edx, edx
	lea	rcx, QWORD PTR $T66[rbp-89]
	call	QWORD PTR __imp__Thrd_join
	test	eax, eax
	je	SHORT $LN168@run
; Line 189
	mov	ecx, 2
	call	QWORD PTR __imp_?_Throw_Cpp_error@std@@YAXH@Z
$LN168@run:
; Line 190
	xor	ebx, ebx
	mov	QWORD PTR updateThread$[rbp-89], rbx
	mov	DWORD PTR updateThread$[rbp-81], ebx
; Line 181
	mov	eax, DWORD PTR renderThread$[rbp-81]
	test	eax, eax
	jne	SHORT $LN184@run
; Line 182
	lea	ecx, QWORD PTR [rbx+1]
	call	QWORD PTR __imp_?_Throw_Cpp_error@std@@YAXH@Z
	mov	eax, DWORD PTR renderThread$[rbp-81]
; Line 184
	test	eax, eax
	jne	SHORT $LN184@run
; Line 185
	lea	ecx, QWORD PTR [rbx+1]
	call	QWORD PTR __imp_?_Throw_Cpp_error@std@@YAXH@Z
$LN184@run:
; Line 200
	call	QWORD PTR __imp__Thrd_id
; Line 186
	cmp	DWORD PTR renderThread$[rbp-81], eax
	jne	SHORT $LN185@run
; Line 187
	mov	ecx, 5
	call	QWORD PTR __imp_?_Throw_Cpp_error@std@@YAXH@Z
$LN185@run:
; Line 188
	movaps	xmm0, XMMWORD PTR renderThread$[rbp-89]
	movdqa	XMMWORD PTR $T73[rbp-89], xmm0
	xor	edx, edx
	lea	rcx, QWORD PTR $T73[rbp-89]
	call	QWORD PTR __imp__Thrd_join
	test	eax, eax
	je	SHORT $LN186@run
; Line 189
	mov	ecx, 2
	call	QWORD PTR __imp_?_Throw_Cpp_error@std@@YAXH@Z
$LN186@run:
; Line 190
	mov	QWORD PTR renderThread$[rbp-89], rbx
	mov	DWORD PTR renderThread$[rbp-81], ebx
; Line 80
	cmp	DWORD PTR updateThread$[rbp-81], 0
; Line 55
	je	SHORT $LN207@run
; Line 56
	call	QWORD PTR __imp_terminate
	int	3
$LN207@run:
; File c:\agil\works\programming\gamedev\sdl2\project\subur\subur\subur\main_game.cpp
; Line 35
	mov	rcx, QWORD PTR __$ArrayPad$[rbp-89]
	xor	rcx, rsp
	call	__security_check_cookie
	mov	rbx, QWORD PTR [rsp+200]
	add	rsp, 176				; 000000b0H
	pop	rbp
	ret	0
$LN218@run:
?run@MainGame@@QEAAXXZ ENDP				; MainGame::run
_TEXT	ENDS
;	COMDAT text$x
text$x	SEGMENT
$T73 = 48
$T66 = 48
$T49 = 48
$T20 = 48
$T76 = 64
updateThread$ = 80
renderThread$ = 96
event$77 = 112
__$ArrayPad$ = 168
this$ = 192
?dtor$2@?0??run@MainGame@@QEAAXXZ@4HA PROC		; `MainGame::run'::`1'::dtor$2
	lea	rcx, QWORD PTR $T20[rdx]
	jmp	??1?$unique_ptr@V?$tuple@P8MainGame@@EAAXXZPEAV1@@std@@U?$default_delete@V?$tuple@P8MainGame@@EAAXXZPEAV1@@std@@@2@@std@@QEAA@XZ ; std::unique_ptr<std::tuple<void (__cdecl MainGame::*)(void),MainGame *>,std::default_delete<std::tuple<void (__cdecl MainGame::*)(void),MainGame *> > >::~unique_ptr<std::tuple<void (__cdecl MainGame::*)(void),MainGame *>,std::default_delete<std::tuple<void (__cdecl MainGame::*)(void),MainGame *> > >
?dtor$2@?0??run@MainGame@@QEAAXXZ@4HA ENDP		; `MainGame::run'::`1'::dtor$2
$T73 = 48
$T66 = 48
$T49 = 48
$T20 = 48
$T76 = 64
updateThread$ = 80
renderThread$ = 96
event$77 = 112
__$ArrayPad$ = 168
this$ = 192
?dtor$0@?0??run@MainGame@@QEAAXXZ@4HA PROC		; `MainGame::run'::`1'::dtor$0
	lea	rcx, QWORD PTR updateThread$[rdx]
	jmp	??1thread@std@@QEAA@XZ			; std::thread::~thread
?dtor$0@?0??run@MainGame@@QEAAXXZ@4HA ENDP		; `MainGame::run'::`1'::dtor$0
$T73 = 48
$T66 = 48
$T49 = 48
$T20 = 48
$T76 = 64
updateThread$ = 80
renderThread$ = 96
event$77 = 112
__$ArrayPad$ = 168
this$ = 192
?dtor$4@?0??run@MainGame@@QEAAXXZ@4HA PROC		; `MainGame::run'::`1'::dtor$4
	lea	rcx, QWORD PTR $T49[rdx]
	jmp	??1?$unique_ptr@V?$tuple@P8MainGame@@EAAXXZPEAV1@@std@@U?$default_delete@V?$tuple@P8MainGame@@EAAXXZPEAV1@@std@@@2@@std@@QEAA@XZ ; std::unique_ptr<std::tuple<void (__cdecl MainGame::*)(void),MainGame *>,std::default_delete<std::tuple<void (__cdecl MainGame::*)(void),MainGame *> > >::~unique_ptr<std::tuple<void (__cdecl MainGame::*)(void),MainGame *>,std::default_delete<std::tuple<void (__cdecl MainGame::*)(void),MainGame *> > >
?dtor$4@?0??run@MainGame@@QEAAXXZ@4HA ENDP		; `MainGame::run'::`1'::dtor$4
$T73 = 48
$T66 = 48
$T49 = 48
$T20 = 48
$T76 = 64
updateThread$ = 80
renderThread$ = 96
event$77 = 112
__$ArrayPad$ = 168
this$ = 192
?dtor$1@?0??run@MainGame@@QEAAXXZ@4HA PROC		; `MainGame::run'::`1'::dtor$1
	lea	rcx, QWORD PTR renderThread$[rdx]
	jmp	??1thread@std@@QEAA@XZ			; std::thread::~thread
?dtor$1@?0??run@MainGame@@QEAAXXZ@4HA ENDP		; `MainGame::run'::`1'::dtor$1
text$x	ENDS
; Function compile flags: /Ogtpy
;	COMDAT text$x
text$x	SEGMENT
$T73 = 48
$T66 = 48
$T49 = 48
$T20 = 48
$T76 = 64
updateThread$ = 80
renderThread$ = 96
event$77 = 112
__$ArrayPad$ = 168
this$ = 192
?dtor$2@?0??run@MainGame@@QEAAXXZ@4HA PROC		; `MainGame::run'::`1'::dtor$2
	lea	rcx, QWORD PTR $T20[rdx]
	jmp	??1?$unique_ptr@V?$tuple@P8MainGame@@EAAXXZPEAV1@@std@@U?$default_delete@V?$tuple@P8MainGame@@EAAXXZPEAV1@@std@@@2@@std@@QEAA@XZ ; std::unique_ptr<std::tuple<void (__cdecl MainGame::*)(void),MainGame *>,std::default_delete<std::tuple<void (__cdecl MainGame::*)(void),MainGame *> > >::~unique_ptr<std::tuple<void (__cdecl MainGame::*)(void),MainGame *>,std::default_delete<std::tuple<void (__cdecl MainGame::*)(void),MainGame *> > >
?dtor$2@?0??run@MainGame@@QEAAXXZ@4HA ENDP		; `MainGame::run'::`1'::dtor$2
text$x	ENDS
; Function compile flags: /Ogtpy
;	COMDAT text$x
text$x	SEGMENT
$T73 = 48
$T66 = 48
$T49 = 48
$T20 = 48
$T76 = 64
updateThread$ = 80
renderThread$ = 96
event$77 = 112
__$ArrayPad$ = 168
this$ = 192
?dtor$0@?0??run@MainGame@@QEAAXXZ@4HA PROC		; `MainGame::run'::`1'::dtor$0
	lea	rcx, QWORD PTR updateThread$[rdx]
	jmp	??1thread@std@@QEAA@XZ			; std::thread::~thread
?dtor$0@?0??run@MainGame@@QEAAXXZ@4HA ENDP		; `MainGame::run'::`1'::dtor$0
text$x	ENDS
; Function compile flags: /Ogtpy
;	COMDAT text$x
text$x	SEGMENT
$T73 = 48
$T66 = 48
$T49 = 48
$T20 = 48
$T76 = 64
updateThread$ = 80
renderThread$ = 96
event$77 = 112
__$ArrayPad$ = 168
this$ = 192
?dtor$4@?0??run@MainGame@@QEAAXXZ@4HA PROC		; `MainGame::run'::`1'::dtor$4
	lea	rcx, QWORD PTR $T49[rdx]
	jmp	??1?$unique_ptr@V?$tuple@P8MainGame@@EAAXXZPEAV1@@std@@U?$default_delete@V?$tuple@P8MainGame@@EAAXXZPEAV1@@std@@@2@@std@@QEAA@XZ ; std::unique_ptr<std::tuple<void (__cdecl MainGame::*)(void),MainGame *>,std::default_delete<std::tuple<void (__cdecl MainGame::*)(void),MainGame *> > >::~unique_ptr<std::tuple<void (__cdecl MainGame::*)(void),MainGame *>,std::default_delete<std::tuple<void (__cdecl MainGame::*)(void),MainGame *> > >
?dtor$4@?0??run@MainGame@@QEAAXXZ@4HA ENDP		; `MainGame::run'::`1'::dtor$4
text$x	ENDS
; Function compile flags: /Ogtpy
;	COMDAT text$x
text$x	SEGMENT
$T73 = 48
$T66 = 48
$T49 = 48
$T20 = 48
$T76 = 64
updateThread$ = 80
renderThread$ = 96
event$77 = 112
__$ArrayPad$ = 168
this$ = 192
?dtor$1@?0??run@MainGame@@QEAAXXZ@4HA PROC		; `MainGame::run'::`1'::dtor$1
	lea	rcx, QWORD PTR renderThread$[rdx]
	jmp	??1thread@std@@QEAA@XZ			; std::thread::~thread
?dtor$1@?0??run@MainGame@@QEAAXXZ@4HA ENDP		; `MainGame::run'::`1'::dtor$1
text$x	ENDS
; Function compile flags: /Ogtpy
;	COMDAT ?_Check_C_return@std@@YAHH@Z
_TEXT	SEGMENT
_Res$ = 48
?_Check_C_return@std@@YAHH@Z PROC			; std::_Check_C_return, COMDAT
; File c:\program files (x86)\microsoft visual studio\2017\community\vc\tools\msvc\14.16.27023\include\thr\xthread
; Line 35
$LN6:
	push	rbx
	sub	rsp, 32					; 00000020H
	mov	ebx, ecx
; Line 36
	test	ecx, ecx
	je	SHORT $LN4@Check_C_re
; Line 37
	call	QWORD PTR __imp_?_Throw_C_error@std@@YAXH@Z
$LN4@Check_C_re:
; Line 39
	mov	eax, ebx
	add	rsp, 32					; 00000020H
	pop	rbx
	ret	0
?_Check_C_return@std@@YAHH@Z ENDP			; std::_Check_C_return
_TEXT	ENDS
; Function compile flags: /Ogtpy
;	COMDAT ?_Thrd_startX@std@@YAHPEAU_Thrd_imp_t@@P6AIPEAX@Z1@Z
_TEXT	SEGMENT
_Thr$ = 48
_Fp$dead$ = 56
_Arg$ = 64
?_Thrd_startX@std@@YAHPEAU_Thrd_imp_t@@P6AIPEAX@Z1@Z PROC ; std::_Thrd_startX, COMDAT
; File c:\program files (x86)\microsoft visual studio\2017\community\vc\tools\msvc\14.16.27023\include\thr\xthread
; Line 50
$LN8:
	push	rbx
	sub	rsp, 32					; 00000020H
; Line 51
	lea	rdx, OFFSET FLAT:?_Call_func@_Pad@std@@CAIPEAX@Z ; std::_Pad::_Call_func
	call	QWORD PTR __imp__Thrd_start
; Line 52
	cmp	eax, 4
	mov	ebx, 1
	cmovne	ebx, eax
; Line 36
	test	ebx, ebx
	je	SHORT $LN6@Thrd_start
; Line 37
	mov	ecx, ebx
	call	QWORD PTR __imp_?_Throw_C_error@std@@YAXH@Z
$LN6@Thrd_start:
; Line 53
	mov	eax, ebx
	add	rsp, 32					; 00000020H
	pop	rbx
	ret	0
?_Thrd_startX@std@@YAHPEAU_Thrd_imp_t@@P6AIPEAX@Z1@Z ENDP ; std::_Thrd_startX
_TEXT	ENDS
; Function compile flags: /Ogtpy
;	COMDAT ?_Mtx_initX@std@@YAHPEAPEAU_Mtx_internal_imp_t@@H@Z
_TEXT	SEGMENT
_Mtx$ = 48
_Type$dead$ = 56
?_Mtx_initX@std@@YAHPEAPEAU_Mtx_internal_imp_t@@H@Z PROC ; std::_Mtx_initX, COMDAT
; File c:\program files (x86)\microsoft visual studio\2017\community\vc\tools\msvc\14.16.27023\include\thr\xthread
; Line 66
$LN8:
	push	rbx
	sub	rsp, 32					; 00000020H
; Line 67
	mov	edx, 1
	call	QWORD PTR __imp__Mtx_init
	mov	ebx, eax
; Line 36
	test	eax, eax
	je	SHORT $LN4@Mtx_initX
; Line 37
	mov	ecx, eax
	call	QWORD PTR __imp_?_Throw_C_error@std@@YAXH@Z
; Line 67
	mov	eax, ebx
$LN4@Mtx_initX:
; Line 68
	add	rsp, 32					; 00000020H
	pop	rbx
	ret	0
?_Mtx_initX@std@@YAHPEAPEAU_Mtx_internal_imp_t@@H@Z ENDP ; std::_Mtx_initX
_TEXT	ENDS
; Function compile flags: /Ogtpy
;	COMDAT ?_Mtx_lockX@std@@YAHPEAU_Mtx_internal_imp_t@@@Z
_TEXT	SEGMENT
_Mtx$ = 48
?_Mtx_lockX@std@@YAHPEAU_Mtx_internal_imp_t@@@Z PROC	; std::_Mtx_lockX, COMDAT
; File c:\program files (x86)\microsoft visual studio\2017\community\vc\tools\msvc\14.16.27023\include\thr\xthread
; Line 71
$LN8:
	push	rbx
	sub	rsp, 32					; 00000020H
; Line 72
	call	QWORD PTR __imp__Mtx_lock
	mov	ebx, eax
; Line 36
	test	eax, eax
	je	SHORT $LN4@Mtx_lockX
; Line 37
	mov	ecx, eax
	call	QWORD PTR __imp_?_Throw_C_error@std@@YAXH@Z
; Line 72
	mov	eax, ebx
$LN4@Mtx_lockX:
; Line 73
	add	rsp, 32					; 00000020H
	pop	rbx
	ret	0
?_Mtx_lockX@std@@YAHPEAU_Mtx_internal_imp_t@@@Z ENDP	; std::_Mtx_lockX
_TEXT	ENDS
; Function compile flags: /Ogtpy
;	COMDAT ?_Mtx_unlockX@std@@YAHPEAU_Mtx_internal_imp_t@@@Z
_TEXT	SEGMENT
_Mtx$ = 48
?_Mtx_unlockX@std@@YAHPEAU_Mtx_internal_imp_t@@@Z PROC	; std::_Mtx_unlockX, COMDAT
; File c:\program files (x86)\microsoft visual studio\2017\community\vc\tools\msvc\14.16.27023\include\thr\xthread
; Line 86
$LN8:
	push	rbx
	sub	rsp, 32					; 00000020H
; Line 87
	call	QWORD PTR __imp__Mtx_unlock
	mov	ebx, eax
; Line 36
	test	eax, eax
	je	SHORT $LN4@Mtx_unlock
; Line 37
	mov	ecx, eax
	call	QWORD PTR __imp_?_Throw_C_error@std@@YAXH@Z
; Line 87
	mov	eax, ebx
$LN4@Mtx_unlock:
; Line 88
	add	rsp, 32					; 00000020H
	pop	rbx
	ret	0
?_Mtx_unlockX@std@@YAHPEAU_Mtx_internal_imp_t@@@Z ENDP	; std::_Mtx_unlockX
_TEXT	ENDS
; Function compile flags: /Ogtpy
;	COMDAT ?_Cnd_initX@std@@YAHPEAPEAU_Cnd_internal_imp_t@@@Z
_TEXT	SEGMENT
_Cnd$ = 48
?_Cnd_initX@std@@YAHPEAPEAU_Cnd_internal_imp_t@@@Z PROC	; std::_Cnd_initX, COMDAT
; File c:\program files (x86)\microsoft visual studio\2017\community\vc\tools\msvc\14.16.27023\include\thr\xthread
; Line 91
$LN8:
	push	rbx
	sub	rsp, 32					; 00000020H
; Line 92
	call	QWORD PTR __imp__Cnd_init
	mov	ebx, eax
; Line 36
	test	eax, eax
	je	SHORT $LN4@Cnd_initX
; Line 37
	mov	ecx, eax
	call	QWORD PTR __imp_?_Throw_C_error@std@@YAXH@Z
; Line 92
	mov	eax, ebx
$LN4@Cnd_initX:
; Line 93
	add	rsp, 32					; 00000020H
	pop	rbx
	ret	0
?_Cnd_initX@std@@YAHPEAPEAU_Cnd_internal_imp_t@@@Z ENDP	; std::_Cnd_initX
_TEXT	ENDS
; Function compile flags: /Ogtpy
;	COMDAT ?_Cnd_waitX@std@@YAHPEAU_Cnd_internal_imp_t@@PEAU_Mtx_internal_imp_t@@@Z
_TEXT	SEGMENT
_Cnd$ = 48
_Mtx$ = 56
?_Cnd_waitX@std@@YAHPEAU_Cnd_internal_imp_t@@PEAU_Mtx_internal_imp_t@@@Z PROC ; std::_Cnd_waitX, COMDAT
; File c:\program files (x86)\microsoft visual studio\2017\community\vc\tools\msvc\14.16.27023\include\thr\xthread
; Line 96
$LN8:
	push	rbx
	sub	rsp, 32					; 00000020H
; Line 97
	call	QWORD PTR __imp__Cnd_wait
	mov	ebx, eax
; Line 36
	test	eax, eax
	je	SHORT $LN4@Cnd_waitX
; Line 37
	mov	ecx, eax
	call	QWORD PTR __imp_?_Throw_C_error@std@@YAXH@Z
; Line 97
	mov	eax, ebx
$LN4@Cnd_waitX:
; Line 98
	add	rsp, 32					; 00000020H
	pop	rbx
	ret	0
?_Cnd_waitX@std@@YAHPEAU_Cnd_internal_imp_t@@PEAU_Mtx_internal_imp_t@@@Z ENDP ; std::_Cnd_waitX
_TEXT	ENDS
; Function compile flags: /Ogtpy
;	COMDAT ?_Cnd_signalX@std@@YAHPEAU_Cnd_internal_imp_t@@@Z
_TEXT	SEGMENT
_Cnd$ = 48
?_Cnd_signalX@std@@YAHPEAU_Cnd_internal_imp_t@@@Z PROC	; std::_Cnd_signalX, COMDAT
; File c:\program files (x86)\microsoft visual studio\2017\community\vc\tools\msvc\14.16.27023\include\thr\xthread
; Line 112
$LN8:
	push	rbx
	sub	rsp, 32					; 00000020H
; Line 113
	call	QWORD PTR __imp__Cnd_signal
	mov	ebx, eax
; Line 36
	test	eax, eax
	je	SHORT $LN4@Cnd_signal
; Line 37
	mov	ecx, eax
	call	QWORD PTR __imp_?_Throw_C_error@std@@YAXH@Z
; Line 113
	mov	eax, ebx
$LN4@Cnd_signal:
; Line 114
	add	rsp, 32					; 00000020H
	pop	rbx
	ret	0
?_Cnd_signalX@std@@YAHPEAU_Cnd_internal_imp_t@@@Z ENDP	; std::_Cnd_signalX
_TEXT	ENDS
; Function compile flags: /Ogtpy
;	COMDAT ??0_Auto_cnd@std@@QEAA@PEAU_Cnd_internal_imp_t@@@Z
_TEXT	SEGMENT
this$ = 8
_Cndp$ = 16
??0_Auto_cnd@std@@QEAA@PEAU_Cnd_internal_imp_t@@@Z PROC	; std::_Auto_cnd::_Auto_cnd, COMDAT
; File c:\program files (x86)\microsoft visual studio\2017\community\vc\tools\msvc\14.16.27023\include\thr\xthread
; Line 120
	mov	BYTE PTR [rcx], 1
; Line 122
	mov	rax, rcx
	mov	QWORD PTR [rcx+8], rdx
	ret	0
??0_Auto_cnd@std@@QEAA@PEAU_Cnd_internal_imp_t@@@Z ENDP	; std::_Auto_cnd::_Auto_cnd
_TEXT	ENDS
; Function compile flags: /Ogtpy
;	COMDAT ??1_Auto_cnd@std@@QEAA@XZ
_TEXT	SEGMENT
this$ = 8
??1_Auto_cnd@std@@QEAA@XZ PROC				; std::_Auto_cnd::~_Auto_cnd, COMDAT
; File c:\program files (x86)\microsoft visual studio\2017\community\vc\tools\msvc\14.16.27023\include\thr\xthread
; Line 126
	cmp	BYTE PTR [rcx], 0
	je	SHORT $LN2@Auto_cnd
; Line 127
	mov	rcx, QWORD PTR [rcx+8]
	rex_jmp	QWORD PTR __imp__Cnd_destroy
$LN2@Auto_cnd:
; Line 128
	ret	0
??1_Auto_cnd@std@@QEAA@XZ ENDP				; std::_Auto_cnd::~_Auto_cnd
_TEXT	ENDS
; Function compile flags: /Ogtpy
;	COMDAT ?_Release@_Auto_cnd@std@@QEAAXXZ
_TEXT	SEGMENT
this$ = 8
?_Release@_Auto_cnd@std@@QEAAXXZ PROC			; std::_Auto_cnd::_Release, COMDAT
; File c:\program files (x86)\microsoft visual studio\2017\community\vc\tools\msvc\14.16.27023\include\thr\xthread
; Line 132
	mov	BYTE PTR [rcx], 0
; Line 133
	ret	0
?_Release@_Auto_cnd@std@@QEAAXXZ ENDP			; std::_Auto_cnd::_Release
_TEXT	ENDS
; Function compile flags: /Ogtpy
;	COMDAT ??0_Auto_mtx@std@@QEAA@PEAU_Mtx_internal_imp_t@@@Z
_TEXT	SEGMENT
this$ = 8
_Mtxp$ = 16
??0_Auto_mtx@std@@QEAA@PEAU_Mtx_internal_imp_t@@@Z PROC	; std::_Auto_mtx::_Auto_mtx, COMDAT
; File c:\program files (x86)\microsoft visual studio\2017\community\vc\tools\msvc\14.16.27023\include\thr\xthread
; Line 144
	mov	BYTE PTR [rcx], 1
; Line 146
	mov	rax, rcx
	mov	QWORD PTR [rcx+8], rdx
	ret	0
??0_Auto_mtx@std@@QEAA@PEAU_Mtx_internal_imp_t@@@Z ENDP	; std::_Auto_mtx::_Auto_mtx
_TEXT	ENDS
; Function compile flags: /Ogtpy
;	COMDAT ??1_Auto_mtx@std@@QEAA@XZ
_TEXT	SEGMENT
this$ = 8
??1_Auto_mtx@std@@QEAA@XZ PROC				; std::_Auto_mtx::~_Auto_mtx, COMDAT
; File c:\program files (x86)\microsoft visual studio\2017\community\vc\tools\msvc\14.16.27023\include\thr\xthread
; Line 150
	cmp	BYTE PTR [rcx], 0
	je	SHORT $LN2@Auto_mtx
; Line 151
	mov	rcx, QWORD PTR [rcx+8]
	rex_jmp	QWORD PTR __imp__Mtx_destroy
$LN2@Auto_mtx:
; Line 152
	ret	0
??1_Auto_mtx@std@@QEAA@XZ ENDP				; std::_Auto_mtx::~_Auto_mtx
_TEXT	ENDS
; Function compile flags: /Ogtpy
;	COMDAT ?_Release@_Auto_mtx@std@@QEAAXXZ
_TEXT	SEGMENT
this$ = 8
?_Release@_Auto_mtx@std@@QEAAXXZ PROC			; std::_Auto_mtx::_Release, COMDAT
; File c:\program files (x86)\microsoft visual studio\2017\community\vc\tools\msvc\14.16.27023\include\thr\xthread
; Line 156
	mov	BYTE PTR [rcx], 0
; Line 157
	ret	0
?_Release@_Auto_mtx@std@@QEAAXXZ ENDP			; std::_Auto_mtx::_Release
_TEXT	ENDS
; Function compile flags: /Ogtpy
;	COMDAT ??0_Pad@std@@QEAA@XZ
_TEXT	SEGMENT
$T1 = 32
_Cnd_cleaner$ = 40
_Mtx_cleaner$ = 56
__$ArrayPad$ = 72
this$ = 96
??0_Pad@std@@QEAA@XZ PROC				; std::_Pad::_Pad, COMDAT
; File c:\program files (x86)\microsoft visual studio\2017\community\vc\tools\msvc\14.16.27023\include\thr\xthread
; Line 169
$LN40:
	push	rdi
	sub	rsp, 80					; 00000050H
	mov	QWORD PTR $T1[rsp], -2
	mov	QWORD PTR [rsp+104], rbx
	mov	rax, QWORD PTR __security_cookie
	xor	rax, rsp
	mov	QWORD PTR __$ArrayPad$[rsp], rax
	mov	rbx, rcx
; Line 92
	add	rcx, 8
	call	QWORD PTR __imp__Cnd_init
; Line 36
	test	eax, eax
	je	SHORT $LN8@Pad
; Line 37
	mov	ecx, eax
	call	QWORD PTR __imp_?_Throw_C_error@std@@YAXH@Z
$LN8@Pad:
	xor	eax, eax
	mov	QWORD PTR _Cnd_cleaner$[rsp], rax
; Line 172
	mov	rax, QWORD PTR [rbx+8]
; Line 120
	mov	BYTE PTR _Cnd_cleaner$[rsp], 1
	mov	QWORD PTR _Cnd_cleaner$[rsp+8], rax
; Line 67
	mov	edx, 1
	lea	rcx, QWORD PTR [rbx+16]
	call	QWORD PTR __imp__Mtx_init
; Line 36
	test	eax, eax
	je	SHORT $LN17@Pad
; Line 37
	mov	ecx, eax
	call	QWORD PTR __imp_?_Throw_C_error@std@@YAXH@Z
$LN17@Pad:
	xor	eax, eax
	mov	QWORD PTR _Mtx_cleaner$[rsp], rax
; Line 174
	mov	rcx, QWORD PTR [rbx+16]
; Line 144
	mov	BYTE PTR _Mtx_cleaner$[rsp], 1
	mov	QWORD PTR _Mtx_cleaner$[rsp+8], rcx
; Line 175
	mov	BYTE PTR [rbx+24], al
; Line 72
	call	QWORD PTR __imp__Mtx_lock
; Line 36
	test	eax, eax
	je	SHORT $LN26@Pad
; Line 37
	mov	ecx, eax
	call	QWORD PTR __imp_?_Throw_C_error@std@@YAXH@Z
	npad	1
$LN26@Pad:
; Line 179
	mov	rax, rbx
	mov	rcx, QWORD PTR __$ArrayPad$[rsp]
	xor	rcx, rsp
	call	__security_check_cookie
	mov	rbx, QWORD PTR [rsp+104]
	add	rsp, 80					; 00000050H
	pop	rdi
	ret	0
??0_Pad@std@@QEAA@XZ ENDP				; std::_Pad::_Pad
_TEXT	ENDS
;	COMDAT text$x
text$x	SEGMENT
$T1 = 32
_Cnd_cleaner$ = 40
_Mtx_cleaner$ = 56
__$ArrayPad$ = 72
this$ = 96
?dtor$0@?0???0_Pad@std@@QEAA@XZ@4HA PROC		; `std::_Pad::_Pad'::`1'::dtor$0
	lea	rcx, QWORD PTR _Cnd_cleaner$[rdx]
	jmp	??1_Auto_cnd@std@@QEAA@XZ		; std::_Auto_cnd::~_Auto_cnd
?dtor$0@?0???0_Pad@std@@QEAA@XZ@4HA ENDP		; `std::_Pad::_Pad'::`1'::dtor$0
$T1 = 32
_Cnd_cleaner$ = 40
_Mtx_cleaner$ = 56
__$ArrayPad$ = 72
this$ = 96
?dtor$1@?0???0_Pad@std@@QEAA@XZ@4HA PROC		; `std::_Pad::_Pad'::`1'::dtor$1
	lea	rcx, QWORD PTR _Mtx_cleaner$[rdx]
	jmp	??1_Auto_mtx@std@@QEAA@XZ		; std::_Auto_mtx::~_Auto_mtx
?dtor$1@?0???0_Pad@std@@QEAA@XZ@4HA ENDP		; `std::_Pad::_Pad'::`1'::dtor$1
text$x	ENDS
; Function compile flags: /Ogtpy
;	COMDAT text$x
text$x	SEGMENT
$T1 = 32
_Cnd_cleaner$ = 40
_Mtx_cleaner$ = 56
__$ArrayPad$ = 72
this$ = 96
?dtor$0@?0???0_Pad@std@@QEAA@XZ@4HA PROC		; `std::_Pad::_Pad'::`1'::dtor$0
	lea	rcx, QWORD PTR _Cnd_cleaner$[rdx]
	jmp	??1_Auto_cnd@std@@QEAA@XZ		; std::_Auto_cnd::~_Auto_cnd
?dtor$0@?0???0_Pad@std@@QEAA@XZ@4HA ENDP		; `std::_Pad::_Pad'::`1'::dtor$0
text$x	ENDS
; Function compile flags: /Ogtpy
;	COMDAT text$x
text$x	SEGMENT
$T1 = 32
_Cnd_cleaner$ = 40
_Mtx_cleaner$ = 56
__$ArrayPad$ = 72
this$ = 96
?dtor$1@?0???0_Pad@std@@QEAA@XZ@4HA PROC		; `std::_Pad::_Pad'::`1'::dtor$1
	lea	rcx, QWORD PTR _Mtx_cleaner$[rdx]
	jmp	??1_Auto_mtx@std@@QEAA@XZ		; std::_Auto_mtx::~_Auto_mtx
?dtor$1@?0???0_Pad@std@@QEAA@XZ@4HA ENDP		; `std::_Pad::_Pad'::`1'::dtor$1
text$x	ENDS
; Function compile flags: /Ogtpy
;	COMDAT ??1_Pad@std@@QEAA@XZ
_TEXT	SEGMENT
$T1 = 32
this$ = 64
??1_Pad@std@@QEAA@XZ PROC				; std::_Pad::~_Pad, COMDAT
; File c:\program files (x86)\microsoft visual studio\2017\community\vc\tools\msvc\14.16.27023\include\thr\xthread
; Line 182
$LN24:
	push	rdi
	sub	rsp, 48					; 00000030H
	mov	QWORD PTR $T1[rsp], -2
	mov	QWORD PTR [rsp+72], rbx
; Line 120
	mov	rdi, QWORD PTR [rcx+8]
; Line 144
	mov	rbx, QWORD PTR [rcx+16]
; Line 87
	mov	rcx, rbx
	call	QWORD PTR __imp__Mtx_unlock
	npad	1
; Line 36
	test	eax, eax
	je	SHORT $LN14@Pad
; Line 37
	mov	ecx, eax
	call	QWORD PTR __imp_?_Throw_C_error@std@@YAXH@Z
	npad	1
$LN14@Pad:
; Line 151
	mov	rcx, rbx
	call	QWORD PTR __imp__Mtx_destroy
	npad	1
; Line 127
	mov	rcx, rdi
; Line 186
	mov	rbx, QWORD PTR [rsp+72]
	add	rsp, 48					; 00000030H
	pop	rdi
; Line 127
	rex_jmp	QWORD PTR __imp__Cnd_destroy
??1_Pad@std@@QEAA@XZ ENDP				; std::_Pad::~_Pad
_TEXT	ENDS
; Function compile flags: /Ogtpy
;	COMDAT ?_Launch@_Pad@std@@QEAAXPEAU_Thrd_imp_t@@@Z
_TEXT	SEGMENT
this$ = 48
_Thr$ = 56
?_Launch@_Pad@std@@QEAAXPEAU_Thrd_imp_t@@@Z PROC	; std::_Pad::_Launch, COMDAT
; File c:\program files (x86)\microsoft visual studio\2017\community\vc\tools\msvc\14.16.27023\include\thr\xthread
; Line 189
$LN19:
	push	rbx
	sub	rsp, 32					; 00000020H
	mov	rax, rdx
	mov	rbx, rcx
; Line 51
	mov	r8, rcx
	lea	rdx, OFFSET FLAT:?_Call_func@_Pad@std@@CAIPEAX@Z ; std::_Pad::_Call_func
	mov	rcx, rax
	call	QWORD PTR __imp__Thrd_start
; Line 52
	cmp	eax, 4
	mov	ecx, 1
	cmovne	ecx, eax
; Line 36
	test	ecx, ecx
	je	SHORT $LN15@Launch
; Line 37
	call	QWORD PTR __imp_?_Throw_C_error@std@@YAXH@Z
$LN15@Launch:
; Line 191
	cmp	BYTE PTR [rbx+24], 0
	jne	SHORT $LN3@Launch
	npad	6
$LL2@Launch:
; Line 97
	mov	rdx, QWORD PTR [rbx+16]
	mov	rcx, QWORD PTR [rbx+8]
	call	QWORD PTR __imp__Cnd_wait
; Line 36
	test	eax, eax
	je	SHORT $LN13@Launch
; Line 37
	mov	ecx, eax
	call	QWORD PTR __imp_?_Throw_C_error@std@@YAXH@Z
$LN13@Launch:
; Line 191
	cmp	BYTE PTR [rbx+24], 0
	je	SHORT $LL2@Launch
$LN3@Launch:
; Line 193
	add	rsp, 32					; 00000020H
	pop	rbx
	ret	0
?_Launch@_Pad@std@@QEAAXPEAU_Thrd_imp_t@@@Z ENDP	; std::_Pad::_Launch
_TEXT	ENDS
; Function compile flags: /Ogtpy
;	COMDAT ?_Release@_Pad@std@@QEAAXXZ
_TEXT	SEGMENT
this$ = 48
?_Release@_Pad@std@@QEAAXXZ PROC			; std::_Pad::_Release, COMDAT
; File c:\program files (x86)\microsoft visual studio\2017\community\vc\tools\msvc\14.16.27023\include\thr\xthread
; Line 196
$LN19:
	push	rbx
	sub	rsp, 32					; 00000020H
	mov	rbx, rcx
; Line 72
	mov	rcx, QWORD PTR [rcx+16]
	call	QWORD PTR __imp__Mtx_lock
; Line 36
	test	eax, eax
	je	SHORT $LN6@Release
; Line 37
	mov	ecx, eax
	call	QWORD PTR __imp_?_Throw_C_error@std@@YAXH@Z
$LN6@Release:
; Line 113
	mov	rcx, QWORD PTR [rbx+8]
; Line 198
	mov	BYTE PTR [rbx+24], 1
; Line 113
	call	QWORD PTR __imp__Cnd_signal
; Line 36
	test	eax, eax
	je	SHORT $LN11@Release
; Line 37
	mov	ecx, eax
	call	QWORD PTR __imp_?_Throw_C_error@std@@YAXH@Z
$LN11@Release:
; Line 87
	mov	rcx, QWORD PTR [rbx+16]
	call	QWORD PTR __imp__Mtx_unlock
; Line 36
	test	eax, eax
	je	SHORT $LN16@Release
; Line 37
	mov	ecx, eax
; Line 201
	add	rsp, 32					; 00000020H
	pop	rbx
; Line 37
	rex_jmp	QWORD PTR __imp_?_Throw_C_error@std@@YAXH@Z
$LN16@Release:
; Line 201
	add	rsp, 32					; 00000020H
	pop	rbx
	ret	0
?_Release@_Pad@std@@QEAAXXZ ENDP			; std::_Pad::_Release
_TEXT	ENDS
; Function compile flags: /Ogtpy
;	COMDAT ?_Call_func@_Pad@std@@CAIPEAX@Z
_TEXT	SEGMENT
_Data$ = 48
?_Call_func@_Pad@std@@CAIPEAX@Z PROC			; std::_Pad::_Call_func, COMDAT
; File c:\program files (x86)\microsoft visual studio\2017\community\vc\tools\msvc\14.16.27023\include\thr\xthread
; Line 207
$LN4:
	sub	rsp, 40					; 00000028H
; Line 208
	mov	rax, QWORD PTR [rcx]
	call	QWORD PTR [rax]
; Line 209
	xor	eax, eax
; Line 210
	add	rsp, 40					; 00000028H
	ret	0
?_Call_func@_Pad@std@@CAIPEAX@Z ENDP			; std::_Pad::_Call_func
_TEXT	ENDS
; Function compile flags: /Ogtpy
;	COMDAT ?__autoclassinit2@_Auto_cnd@std@@QEAAX_K@Z
_TEXT	SEGMENT
this$ = 8
classSize$dead$ = 16
?__autoclassinit2@_Auto_cnd@std@@QEAAX_K@Z PROC		; std::_Auto_cnd::__autoclassinit2, COMDAT
	xor	eax, eax
	mov	QWORD PTR [rcx], rax
	mov	QWORD PTR [rcx+8], rax
	ret	0
?__autoclassinit2@_Auto_cnd@std@@QEAAX_K@Z ENDP		; std::_Auto_cnd::__autoclassinit2
_TEXT	ENDS
; Function compile flags: /Ogtpy
;	COMDAT ?__autoclassinit2@_Auto_mtx@std@@QEAAX_K@Z
_TEXT	SEGMENT
this$ = 8
classSize$dead$ = 16
?__autoclassinit2@_Auto_mtx@std@@QEAAX_K@Z PROC		; std::_Auto_mtx::__autoclassinit2, COMDAT
	xor	eax, eax
	mov	QWORD PTR [rcx], rax
	mov	QWORD PTR [rcx+8], rax
	ret	0
?__autoclassinit2@_Auto_mtx@std@@QEAAX_K@Z ENDP		; std::_Auto_mtx::__autoclassinit2
_TEXT	ENDS
; Function compile flags: /Ogtpy
;	COMDAT ??1thread@std@@QEAA@XZ
_TEXT	SEGMENT
this$ = 48
??1thread@std@@QEAA@XZ PROC				; std::thread::~thread, COMDAT
; File c:\program files (x86)\microsoft visual studio\2017\community\vc\tools\msvc\14.16.27023\include\thread
; Line 54
$LN9:
	sub	rsp, 40					; 00000028H
; Line 80
	cmp	DWORD PTR [rcx+8], 0
; Line 55
	je	SHORT $LN2@thread
; Line 56
	call	QWORD PTR __imp_terminate
	int	3
$LN2@thread:
; Line 57
	add	rsp, 40					; 00000028H
	ret	0
$LN6@thread:
??1thread@std@@QEAA@XZ ENDP				; std::thread::~thread
_TEXT	ENDS
; Function compile flags: /Ogtpy
;	COMDAT ?joinable@thread@std@@QEBA_NXZ
_TEXT	SEGMENT
this$ = 8
?joinable@thread@std@@QEBA_NXZ PROC			; std::thread::joinable, COMDAT
; File c:\program files (x86)\microsoft visual studio\2017\community\vc\tools\msvc\14.16.27023\include\thread
; Line 80
	cmp	DWORD PTR [rcx+8], 0
	setne	al
; Line 81
	ret	0
?joinable@thread@std@@QEBA_NXZ ENDP			; std::thread::joinable
_TEXT	ENDS
; Function compile flags: /Ogtpy
;	COMDAT ??0id@thread@std@@AEAA@I@Z
_TEXT	SEGMENT
this$ = 8
_Other_id$ = 16
??0id@thread@std@@AEAA@I@Z PROC				; std::thread::id::id, COMDAT
; File c:\program files (x86)\microsoft visual studio\2017\community\vc\tools\msvc\14.16.27023\include\thread
; Line 166
	mov	DWORD PTR [rcx], edx
; Line 168
	mov	rax, rcx
	ret	0
??0id@thread@std@@AEAA@I@Z ENDP				; std::thread::id::id
_TEXT	ENDS
; Function compile flags: /Ogtpy
;	COMDAT ?join@thread@std@@QEAAXXZ
_TEXT	SEGMENT
$T7 = 32
this$ = 64
?join@thread@std@@QEAAXXZ PROC				; std::thread::join, COMDAT
; File c:\program files (x86)\microsoft visual studio\2017\community\vc\tools\msvc\14.16.27023\include\thread
; Line 180
$LN23:
	push	rbx
	sub	rsp, 48					; 00000030H
; Line 80
	mov	eax, DWORD PTR [rcx+8]
; Line 180
	mov	rbx, rcx
; Line 80
	test	eax, eax
; Line 181
	jne	SHORT $LN3@join
; Line 182
	lea	ecx, QWORD PTR [rax+1]
	call	QWORD PTR __imp_?_Throw_Cpp_error@std@@YAXH@Z
	mov	eax, DWORD PTR [rbx+8]
; Line 183
	test	eax, eax
; Line 184
	jne	SHORT $LN3@join
; Line 185
	lea	ecx, QWORD PTR [rax+1]
	call	QWORD PTR __imp_?_Throw_Cpp_error@std@@YAXH@Z
$LN3@join:
; Line 200
	call	QWORD PTR __imp__Thrd_id
; Line 166
	cmp	DWORD PTR [rbx+8], eax
; Line 186
	jne	SHORT $LN4@join
; Line 187
	mov	ecx, 5
	call	QWORD PTR __imp_?_Throw_Cpp_error@std@@YAXH@Z
$LN4@join:
; Line 188
	movups	xmm0, XMMWORD PTR [rbx]
	xor	edx, edx
	lea	rcx, QWORD PTR $T7[rsp]
	movaps	XMMWORD PTR $T7[rsp], xmm0
	call	QWORD PTR __imp__Thrd_join
	test	eax, eax
	je	SHORT $LN19@join
; Line 189
	mov	ecx, 2
	call	QWORD PTR __imp_?_Throw_Cpp_error@std@@YAXH@Z
$LN19@join:
; Line 191
	xor	eax, eax
	mov	DWORD PTR [rbx+8], eax
	mov	QWORD PTR [rbx], rax
	add	rsp, 48					; 00000030H
	pop	rbx
	ret	0
?join@thread@std@@QEAAXXZ ENDP				; std::thread::join
_TEXT	ENDS
; Function compile flags: /Ogtpy
;	COMDAT ?get_id@thread@std@@QEBA?AVid@12@XZ
_TEXT	SEGMENT
this$ = 8
__$ReturnUdt$ = 16
?get_id@thread@std@@QEBA?AVid@12@XZ PROC		; std::thread::get_id, COMDAT
; File c:\program files (x86)\microsoft visual studio\2017\community\vc\tools\msvc\14.16.27023\include\thread
; Line 166
	mov	eax, DWORD PTR [rcx+8]
	mov	DWORD PTR [rdx], eax
; Line 195
	mov	rax, rdx
; Line 196
	ret	0
?get_id@thread@std@@QEBA?AVid@12@XZ ENDP		; std::thread::get_id
_TEXT	ENDS
; Function compile flags: /Ogtpy
;	COMDAT ?get_id@this_thread@std@@YA?AVid@thread@2@XZ
_TEXT	SEGMENT
__$ReturnUdt$ = 48
?get_id@this_thread@std@@YA?AVid@thread@2@XZ PROC	; std::this_thread::get_id, COMDAT
; File c:\program files (x86)\microsoft visual studio\2017\community\vc\tools\msvc\14.16.27023\include\thread
; Line 199
$LN7:
	push	rbx
	sub	rsp, 32					; 00000020H
	mov	rbx, rcx
; Line 200
	call	QWORD PTR __imp__Thrd_id
; Line 166
	mov	DWORD PTR [rbx], eax
; Line 200
	mov	rax, rbx
; Line 201
	add	rsp, 32					; 00000020H
	pop	rbx
	ret	0
?get_id@this_thread@std@@YA?AVid@thread@2@XZ ENDP	; std::this_thread::get_id
_TEXT	ENDS
; Function compile flags: /Ogtpy
;	COMDAT ??8std@@YA_NVid@thread@0@0@Z
_TEXT	SEGMENT
_Left$ = 8
_Right$ = 16
??8std@@YA_NVid@thread@0@0@Z PROC			; std::operator==, COMDAT
; File c:\program files (x86)\microsoft visual studio\2017\community\vc\tools\msvc\14.16.27023\include\thread
; Line 210
	cmp	ecx, edx
	sete	al
; Line 211
	ret	0
??8std@@YA_NVid@thread@0@0@Z ENDP			; std::operator==
_TEXT	ENDS
; Function compile flags: /Ogtpy
;	COMDAT ?processInput@MainGame@@AEAAXXZ
_TEXT	SEGMENT
event$ = 32
__$ArrayPad$ = 88
this$ = 112
?processInput@MainGame@@AEAAXXZ PROC			; MainGame::processInput, COMDAT
; File c:\agil\works\programming\gamedev\sdl2\project\subur\subur\subur\main_game.cpp
; Line 39
$LN12:
	push	rbx
	sub	rsp, 96					; 00000060H
	mov	rax, QWORD PTR __security_cookie
	xor	rax, rsp
	mov	QWORD PTR __$ArrayPad$[rsp], rax
	mov	rbx, rcx
; Line 41
	lea	rcx, QWORD PTR event$[rsp]
	call	QWORD PTR __imp_SDL_PollEvent
	test	eax, eax
	je	SHORT $LN3@processInp
	npad	9
$LL2@processInp:
; Line 43
	cmp	DWORD PTR event$[rsp], 256		; 00000100H
	jne	SHORT $LN4@processInp
; Line 46
	mov	BYTE PTR [rbx+16], 0
$LN4@processInp:
; Line 41
	lea	rcx, QWORD PTR event$[rsp]
	call	QWORD PTR __imp_SDL_PollEvent
	test	eax, eax
	jne	SHORT $LL2@processInp
$LN3@processInp:
; Line 50
	mov	rcx, QWORD PTR __$ArrayPad$[rsp]
	xor	rcx, rsp
	call	__security_check_cookie
	add	rsp, 96					; 00000060H
	pop	rbx
	ret	0
?processInput@MainGame@@AEAAXXZ ENDP			; MainGame::processInput
_TEXT	ENDS
; Function compile flags: /Ogtpy
;	COMDAT ?updateGame@MainGame@@AEAAXXZ
_TEXT	SEGMENT
this$ = 8
?updateGame@MainGame@@AEAAXXZ PROC			; MainGame::updateGame, COMDAT
; File c:\agil\works\programming\gamedev\sdl2\project\subur\subur\subur\main_game.cpp
; Line 55
	ret	0
?updateGame@MainGame@@AEAAXXZ ENDP			; MainGame::updateGame
_TEXT	ENDS
; Function compile flags: /Ogtpy
;	COMDAT ??$?0P8MainGame@@EAAXXZPEAV0@X@thread@std@@QEAA@$$QEAP8MainGame@@EAAXXZ$$QEAPEAV2@@Z
_TEXT	SEGMENT
$T18 = 32
$T29 = 40
this$ = 64
_Fx$ = 72
<_Ax_0>$ = 80
??$?0P8MainGame@@EAAXXZPEAV0@X@thread@std@@QEAA@$$QEAP8MainGame@@EAAXXZ$$QEAPEAV2@@Z PROC ; std::thread::thread<void (__cdecl MainGame::*)(void),MainGame *,void>, COMDAT
; File c:\program files (x86)\microsoft visual studio\2017\community\vc\tools\msvc\14.16.27023\include\thread
; Line 46
$LN78:
	push	rdi
	sub	rsp, 48					; 00000030H
	mov	QWORD PTR $T29[rsp], -2
	mov	QWORD PTR [rsp+72], rbx
	mov	QWORD PTR [rsp+80], rsi
	mov	rbx, r8
	mov	rdi, rdx
	mov	rsi, rcx
; File c:\program files (x86)\microsoft visual studio\2017\community\vc\tools\msvc\14.16.27023\include\memory
; Line 2539
	mov	ecx, 16
	call	??2@YAPEAX_K@Z				; operator new
	mov	rcx, rax
; File c:\program files (x86)\microsoft visual studio\2017\community\vc\tools\msvc\14.16.27023\include\tuple
; Line 236
	mov	rax, QWORD PTR [rbx]
	mov	QWORD PTR [rcx], rax
	mov	rax, QWORD PTR [rdi]
	mov	QWORD PTR [rcx+8], rax
; File c:\program files (x86)\microsoft visual studio\2017\community\vc\tools\msvc\14.16.27023\include\xutility
; Line 277
	mov	QWORD PTR $T18[rsp], rcx
; File c:\program files (x86)\microsoft visual studio\2017\community\vc\tools\msvc\14.16.27023\include\thread
; Line 47
	lea	rdx, QWORD PTR $T18[rsp]
	mov	rcx, rsi
	call	??$_Launch@V?$unique_ptr@V?$tuple@P8MainGame@@EAAXXZPEAV1@@std@@U?$default_delete@V?$tuple@P8MainGame@@EAAXXZPEAV1@@std@@@2@@std@@@std@@YAXPEAU_Thrd_imp_t@@$$QEAV?$unique_ptr@V?$tuple@P8MainGame@@EAAXXZPEAV1@@std@@U?$default_delete@V?$tuple@P8MainGame@@EAAXXZPEAV1@@std@@@2@@0@@Z ; std::_Launch<std::unique_ptr<std::tuple<void (__cdecl MainGame::*)(void),MainGame *>,std::default_delete<std::tuple<void (__cdecl MainGame::*)(void),MainGame *> > > >
	npad	1
; File c:\program files (x86)\microsoft visual studio\2017\community\vc\tools\msvc\14.16.27023\include\memory
; Line 2294
	mov	rcx, QWORD PTR $T18[rsp]
	test	rcx, rcx
	je	SHORT $LN75@thread
; Line 2084
	mov	edx, 16
	call	??3@YAXPEAX_K@Z				; operator delete
$LN75@thread:
; File c:\program files (x86)\microsoft visual studio\2017\community\vc\tools\msvc\14.16.27023\include\thread
; Line 50
	mov	rax, rsi
	mov	rbx, QWORD PTR [rsp+72]
	mov	rsi, QWORD PTR [rsp+80]
	add	rsp, 48					; 00000030H
	pop	rdi
	ret	0
??$?0P8MainGame@@EAAXXZPEAV0@X@thread@std@@QEAA@$$QEAP8MainGame@@EAAXXZ$$QEAPEAV2@@Z ENDP ; std::thread::thread<void (__cdecl MainGame::*)(void),MainGame *,void>
_TEXT	ENDS
;	COMDAT text$x
text$x	SEGMENT
$T18 = 32
$T29 = 40
this$ = 64
_Fx$ = 72
<_Ax_0>$ = 80
?dtor$0@?0???$?0P8MainGame@@EAAXXZPEAV0@X@thread@std@@QEAA@$$QEAP8MainGame@@EAAXXZ$$QEAPEAV2@@Z@4HA PROC ; `std::thread::thread<void (__cdecl MainGame::*)(void),MainGame *,void>'::`1'::dtor$0
	lea	rcx, QWORD PTR $T18[rdx]
	jmp	??1?$unique_ptr@V?$tuple@P8MainGame@@EAAXXZPEAV1@@std@@U?$default_delete@V?$tuple@P8MainGame@@EAAXXZPEAV1@@std@@@2@@std@@QEAA@XZ ; std::unique_ptr<std::tuple<void (__cdecl MainGame::*)(void),MainGame *>,std::default_delete<std::tuple<void (__cdecl MainGame::*)(void),MainGame *> > >::~unique_ptr<std::tuple<void (__cdecl MainGame::*)(void),MainGame *>,std::default_delete<std::tuple<void (__cdecl MainGame::*)(void),MainGame *> > >
?dtor$0@?0???$?0P8MainGame@@EAAXXZPEAV0@X@thread@std@@QEAA@$$QEAP8MainGame@@EAAXXZ$$QEAPEAV2@@Z@4HA ENDP ; `std::thread::thread<void (__cdecl MainGame::*)(void),MainGame *,void>'::`1'::dtor$0
text$x	ENDS
; Function compile flags: /Ogtpy
;	COMDAT text$x
text$x	SEGMENT
$T18 = 32
$T29 = 40
this$ = 64
_Fx$ = 72
<_Ax_0>$ = 80
?dtor$0@?0???$?0P8MainGame@@EAAXXZPEAV0@X@thread@std@@QEAA@$$QEAP8MainGame@@EAAXXZ$$QEAPEAV2@@Z@4HA PROC ; `std::thread::thread<void (__cdecl MainGame::*)(void),MainGame *,void>'::`1'::dtor$0
	lea	rcx, QWORD PTR $T18[rdx]
	jmp	??1?$unique_ptr@V?$tuple@P8MainGame@@EAAXXZPEAV1@@std@@U?$default_delete@V?$tuple@P8MainGame@@EAAXXZPEAV1@@std@@@2@@std@@QEAA@XZ ; std::unique_ptr<std::tuple<void (__cdecl MainGame::*)(void),MainGame *>,std::default_delete<std::tuple<void (__cdecl MainGame::*)(void),MainGame *> > >::~unique_ptr<std::tuple<void (__cdecl MainGame::*)(void),MainGame *>,std::default_delete<std::tuple<void (__cdecl MainGame::*)(void),MainGame *> > >
?dtor$0@?0???$?0P8MainGame@@EAAXXZPEAV0@X@thread@std@@QEAA@$$QEAP8MainGame@@EAAXXZ$$QEAPEAV2@@Z@4HA ENDP ; `std::thread::thread<void (__cdecl MainGame::*)(void),MainGame *,void>'::`1'::dtor$0
text$x	ENDS
; Function compile flags: /Ogtpy
;	COMDAT ??1?$unique_ptr@V?$tuple@P8MainGame@@EAAXXZPEAV1@@std@@U?$default_delete@V?$tuple@P8MainGame@@EAAXXZPEAV1@@std@@@2@@std@@QEAA@XZ
_TEXT	SEGMENT
this$ = 8
??1?$unique_ptr@V?$tuple@P8MainGame@@EAAXXZPEAV1@@std@@U?$default_delete@V?$tuple@P8MainGame@@EAAXXZPEAV1@@std@@@2@@std@@QEAA@XZ PROC ; std::unique_ptr<std::tuple<void (__cdecl MainGame::*)(void),MainGame *>,std::default_delete<std::tuple<void (__cdecl MainGame::*)(void),MainGame *> > >::~unique_ptr<std::tuple<void (__cdecl MainGame::*)(void),MainGame *>,std::default_delete<std::tuple<void (__cdecl MainGame::*)(void),MainGame *> > >, COMDAT
; File c:\program files (x86)\microsoft visual studio\2017\community\vc\tools\msvc\14.16.27023\include\memory
; Line 2294
	mov	rcx, QWORD PTR [rcx]
	test	rcx, rcx
	je	SHORT $LN22@unique_ptr
; Line 2084
	mov	edx, 16
	jmp	??3@YAXPEAX_K@Z				; operator delete
$LN22@unique_ptr:
; Line 2298
	ret	0
??1?$unique_ptr@V?$tuple@P8MainGame@@EAAXXZPEAV1@@std@@U?$default_delete@V?$tuple@P8MainGame@@EAAXXZPEAV1@@std@@@2@@std@@QEAA@XZ ENDP ; std::unique_ptr<std::tuple<void (__cdecl MainGame::*)(void),MainGame *>,std::default_delete<std::tuple<void (__cdecl MainGame::*)(void),MainGame *> > >::~unique_ptr<std::tuple<void (__cdecl MainGame::*)(void),MainGame *>,std::default_delete<std::tuple<void (__cdecl MainGame::*)(void),MainGame *> > >
_TEXT	ENDS
; Function compile flags: /Ogtpy
;	COMDAT ?get_deleter@?$_Unique_ptr_base@V?$tuple@P8MainGame@@EAAXXZPEAV1@@std@@U?$default_delete@V?$tuple@P8MainGame@@EAAXXZPEAV1@@std@@@2@@std@@QEAAAEAU?$default_delete@V?$tuple@P8MainGame@@EAAXXZPEAV1@@std@@@2@XZ
_TEXT	SEGMENT
this$ = 8
?get_deleter@?$_Unique_ptr_base@V?$tuple@P8MainGame@@EAAXXZPEAV1@@std@@U?$default_delete@V?$tuple@P8MainGame@@EAAXXZPEAV1@@std@@@2@@std@@QEAAAEAU?$default_delete@V?$tuple@P8MainGame@@EAAXXZPEAV1@@std@@@2@XZ PROC ; std::_Unique_ptr_base<std::tuple<void (__cdecl MainGame::*)(void),MainGame *>,std::default_delete<std::tuple<void (__cdecl MainGame::*)(void),MainGame *> > >::get_deleter, COMDAT
; File c:\program files (x86)\microsoft visual studio\2017\community\vc\tools\msvc\14.16.27023\include\memory
; Line 2149
	mov	rax, rcx
; Line 2150
	ret	0
?get_deleter@?$_Unique_ptr_base@V?$tuple@P8MainGame@@EAAXXZPEAV1@@std@@U?$default_delete@V?$tuple@P8MainGame@@EAAXXZPEAV1@@std@@@2@@std@@QEAAAEAU?$default_delete@V?$tuple@P8MainGame@@EAAXXZPEAV1@@std@@@2@XZ ENDP ; std::_Unique_ptr_base<std::tuple<void (__cdecl MainGame::*)(void),MainGame *>,std::default_delete<std::tuple<void (__cdecl MainGame::*)(void),MainGame *> > >::get_deleter
_TEXT	ENDS
; Function compile flags: /Ogtpy
;	COMDAT ?get@?$unique_ptr@V?$tuple@P8MainGame@@EAAXXZPEAV1@@std@@U?$default_delete@V?$tuple@P8MainGame@@EAAXXZPEAV1@@std@@@2@@std@@QEBAPEAV?$tuple@P8MainGame@@EAAXXZPEAV1@@2@XZ
_TEXT	SEGMENT
this$ = 8
?get@?$unique_ptr@V?$tuple@P8MainGame@@EAAXXZPEAV1@@std@@U?$default_delete@V?$tuple@P8MainGame@@EAAXXZPEAV1@@std@@@2@@std@@QEBAPEAV?$tuple@P8MainGame@@EAAXXZPEAV1@@2@XZ PROC ; std::unique_ptr<std::tuple<void (__cdecl MainGame::*)(void),MainGame *>,std::default_delete<std::tuple<void (__cdecl MainGame::*)(void),MainGame *> > >::get, COMDAT
; File c:\program files (x86)\microsoft visual studio\2017\community\vc\tools\msvc\14.16.27023\include\memory
; Line 2312
	mov	rax, QWORD PTR [rcx]
; Line 2313
	ret	0
?get@?$unique_ptr@V?$tuple@P8MainGame@@EAAXXZPEAV1@@std@@U?$default_delete@V?$tuple@P8MainGame@@EAAXXZPEAV1@@std@@@2@@std@@QEBAPEAV?$tuple@P8MainGame@@EAAXXZPEAV1@@2@XZ ENDP ; std::unique_ptr<std::tuple<void (__cdecl MainGame::*)(void),MainGame *>,std::default_delete<std::tuple<void (__cdecl MainGame::*)(void),MainGame *> > >::get
_TEXT	ENDS
; Function compile flags: /Ogtpy
;	COMDAT ??R?$default_delete@V?$tuple@P8MainGame@@EAAXXZPEAV1@@std@@@std@@QEBAXPEAV?$tuple@P8MainGame@@EAAXXZPEAV1@@1@@Z
_TEXT	SEGMENT
this$dead$ = 8
_Ptr$ = 16
??R?$default_delete@V?$tuple@P8MainGame@@EAAXXZPEAV1@@std@@@std@@QEBAXPEAV?$tuple@P8MainGame@@EAAXXZPEAV1@@1@@Z PROC ; std::default_delete<std::tuple<void (__cdecl MainGame::*)(void),MainGame *> >::operator(), COMDAT
; File c:\program files (x86)\microsoft visual studio\2017\community\vc\tools\msvc\14.16.27023\include\memory
; Line 2081
	mov	rcx, rdx
; Line 2084
	mov	edx, 16
	jmp	??3@YAXPEAX_K@Z				; operator delete
??R?$default_delete@V?$tuple@P8MainGame@@EAAXXZPEAV1@@std@@@std@@QEBAXPEAV?$tuple@P8MainGame@@EAAXXZPEAV1@@1@@Z ENDP ; std::default_delete<std::tuple<void (__cdecl MainGame::*)(void),MainGame *> >::operator()
_TEXT	ENDS
; Function compile flags: /Ogtpy
;	COMDAT ?_Get_first@?$_Compressed_pair@U?$default_delete@V?$tuple@P8MainGame@@EAAXXZPEAV1@@std@@@std@@PEAV?$tuple@P8MainGame@@EAAXXZPEAV1@@2@$00@std@@QEAAAEAU?$default_delete@V?$tuple@P8MainGame@@EAAXXZPEAV1@@std@@@2@XZ
_TEXT	SEGMENT
this$ = 8
?_Get_first@?$_Compressed_pair@U?$default_delete@V?$tuple@P8MainGame@@EAAXXZPEAV1@@std@@@std@@PEAV?$tuple@P8MainGame@@EAAXXZPEAV1@@2@$00@std@@QEAAAEAU?$default_delete@V?$tuple@P8MainGame@@EAAXXZPEAV1@@std@@@2@XZ PROC ; std::_Compressed_pair<std::default_delete<std::tuple<void (__cdecl MainGame::*)(void),MainGame *> >,std::tuple<void (__cdecl MainGame::*)(void),MainGame *> *,1>::_Get_first, COMDAT
; File c:\program files (x86)\microsoft visual studio\2017\community\vc\tools\msvc\14.16.27023\include\xutility
; Line 292
	mov	rax, rcx
; Line 293
	ret	0
?_Get_first@?$_Compressed_pair@U?$default_delete@V?$tuple@P8MainGame@@EAAXXZPEAV1@@std@@@std@@PEAV?$tuple@P8MainGame@@EAAXXZPEAV1@@2@$00@std@@QEAAAEAU?$default_delete@V?$tuple@P8MainGame@@EAAXXZPEAV1@@std@@@2@XZ ENDP ; std::_Compressed_pair<std::default_delete<std::tuple<void (__cdecl MainGame::*)(void),MainGame *> >,std::tuple<void (__cdecl MainGame::*)(void),MainGame *> *,1>::_Get_first
_TEXT	ENDS
; Function compile flags: /Ogtpy
;	COMDAT ?_Myptr@?$_Unique_ptr_base@V?$tuple@P8MainGame@@EAAXXZPEAV1@@std@@U?$default_delete@V?$tuple@P8MainGame@@EAAXXZPEAV1@@std@@@2@@std@@QEBAAEBQEAV?$tuple@P8MainGame@@EAAXXZPEAV1@@2@XZ
_TEXT	SEGMENT
this$ = 8
?_Myptr@?$_Unique_ptr_base@V?$tuple@P8MainGame@@EAAXXZPEAV1@@std@@U?$default_delete@V?$tuple@P8MainGame@@EAAXXZPEAV1@@std@@@2@@std@@QEBAAEBQEAV?$tuple@P8MainGame@@EAAXXZPEAV1@@2@XZ PROC ; std::_Unique_ptr_base<std::tuple<void (__cdecl MainGame::*)(void),MainGame *>,std::default_delete<std::tuple<void (__cdecl MainGame::*)(void),MainGame *> > >::_Myptr, COMDAT
; File c:\program files (x86)\microsoft visual studio\2017\community\vc\tools\msvc\14.16.27023\include\memory
; Line 2164
	mov	rax, rcx
; Line 2165
	ret	0
?_Myptr@?$_Unique_ptr_base@V?$tuple@P8MainGame@@EAAXXZPEAV1@@std@@U?$default_delete@V?$tuple@P8MainGame@@EAAXXZPEAV1@@std@@@2@@std@@QEBAAEBQEAV?$tuple@P8MainGame@@EAAXXZPEAV1@@2@XZ ENDP ; std::_Unique_ptr_base<std::tuple<void (__cdecl MainGame::*)(void),MainGame *>,std::default_delete<std::tuple<void (__cdecl MainGame::*)(void),MainGame *> > >::_Myptr
_TEXT	ENDS
; Function compile flags: /Ogtpy
;	COMDAT ?_Get_second@?$_Compressed_pair@U?$default_delete@V?$tuple@P8MainGame@@EAAXXZPEAV1@@std@@@std@@PEAV?$tuple@P8MainGame@@EAAXXZPEAV1@@2@$00@std@@QEBAAEBQEAV?$tuple@P8MainGame@@EAAXXZPEAV1@@2@XZ
_TEXT	SEGMENT
this$ = 8
?_Get_second@?$_Compressed_pair@U?$default_delete@V?$tuple@P8MainGame@@EAAXXZPEAV1@@std@@@std@@PEAV?$tuple@P8MainGame@@EAAXXZPEAV1@@2@$00@std@@QEBAAEBQEAV?$tuple@P8MainGame@@EAAXXZPEAV1@@2@XZ PROC ; std::_Compressed_pair<std::default_delete<std::tuple<void (__cdecl MainGame::*)(void),MainGame *> >,std::tuple<void (__cdecl MainGame::*)(void),MainGame *> *,1>::_Get_second, COMDAT
; File c:\program files (x86)\microsoft visual studio\2017\community\vc\tools\msvc\14.16.27023\include\xutility
; Line 307
	mov	rax, rcx
; Line 308
	ret	0
?_Get_second@?$_Compressed_pair@U?$default_delete@V?$tuple@P8MainGame@@EAAXXZPEAV1@@std@@@std@@PEAV?$tuple@P8MainGame@@EAAXXZPEAV1@@2@$00@std@@QEBAAEBQEAV?$tuple@P8MainGame@@EAAXXZPEAV1@@2@XZ ENDP ; std::_Compressed_pair<std::default_delete<std::tuple<void (__cdecl MainGame::*)(void),MainGame *> >,std::tuple<void (__cdecl MainGame::*)(void),MainGame *> *,1>::_Get_second
_TEXT	ENDS
; Function compile flags: /Ogtpy
;	COMDAT ??$forward@P8MainGame@@EAAXXZ@std@@YA$$QEAP8MainGame@@EAAXXZAEAP81@EAAXXZ@Z
_TEXT	SEGMENT
_Arg$ = 8
??$forward@P8MainGame@@EAAXXZ@std@@YA$$QEAP8MainGame@@EAAXXZAEAP81@EAAXXZ@Z PROC ; std::forward<void (__cdecl MainGame::*)(void)>, COMDAT
; File c:\program files (x86)\microsoft visual studio\2017\community\vc\tools\msvc\14.16.27023\include\type_traits
; Line 1574
	mov	rax, rcx
; Line 1575
	ret	0
??$forward@P8MainGame@@EAAXXZ@std@@YA$$QEAP8MainGame@@EAAXXZAEAP81@EAAXXZ@Z ENDP ; std::forward<void (__cdecl MainGame::*)(void)>
_TEXT	ENDS
; Function compile flags: /Ogtpy
;	COMDAT ??$forward@PEAVMainGame@@@std@@YA$$QEAPEAVMainGame@@AEAPEAV1@@Z
_TEXT	SEGMENT
_Arg$ = 8
??$forward@PEAVMainGame@@@std@@YA$$QEAPEAVMainGame@@AEAPEAV1@@Z PROC ; std::forward<MainGame *>, COMDAT
; File c:\program files (x86)\microsoft visual studio\2017\community\vc\tools\msvc\14.16.27023\include\type_traits
; Line 1574
	mov	rax, rcx
; Line 1575
	ret	0
??$forward@PEAVMainGame@@@std@@YA$$QEAPEAVMainGame@@AEAPEAV1@@Z ENDP ; std::forward<MainGame *>
_TEXT	ENDS
; Function compile flags: /Ogtpy
;	COMDAT ??$make_unique@V?$tuple@P8MainGame@@EAAXXZPEAV1@@std@@P8MainGame@@EAAXXZPEAV3@$0A@@std@@YA?AV?$unique_ptr@V?$tuple@P8MainGame@@EAAXXZPEAV1@@std@@U?$default_delete@V?$tuple@P8MainGame@@EAAXXZPEAV1@@std@@@2@@0@$$QEAP8MainGame@@EAAXXZ$$QEAPEAV2@@Z
_TEXT	SEGMENT
__$ReturnUdt$GSCopy$ = 32
__$ReturnUdt$ = 64
<_Args_0>$ = 72
<_Args_1>$ = 80
??$make_unique@V?$tuple@P8MainGame@@EAAXXZPEAV1@@std@@P8MainGame@@EAAXXZPEAV3@$0A@@std@@YA?AV?$unique_ptr@V?$tuple@P8MainGame@@EAAXXZPEAV1@@std@@U?$default_delete@V?$tuple@P8MainGame@@EAAXXZPEAV1@@std@@@2@@0@$$QEAP8MainGame@@EAAXXZ$$QEAPEAV2@@Z PROC ; std::make_unique<std::tuple<void (__cdecl MainGame::*)(void),MainGame *>,void (__cdecl MainGame::*)(void),MainGame *,0>, COMDAT
; File c:\program files (x86)\microsoft visual studio\2017\community\vc\tools\msvc\14.16.27023\include\memory
; Line 2538
$LN47:
	mov	QWORD PTR [rsp+16], rbx
	mov	QWORD PTR [rsp+24], rsi
	push	rdi
	sub	rsp, 48					; 00000030H
	mov	rsi, rcx
	mov	QWORD PTR __$ReturnUdt$GSCopy$[rsp], rcx
; Line 2539
	mov	ecx, 16
	mov	rbx, r8
	mov	rdi, rdx
	call	??2@YAPEAX_K@Z				; operator new
; File c:\program files (x86)\microsoft visual studio\2017\community\vc\tools\msvc\14.16.27023\include\tuple
; Line 236
	mov	rcx, QWORD PTR [rbx]
; File c:\program files (x86)\microsoft visual studio\2017\community\vc\tools\msvc\14.16.27023\include\memory
; Line 2540
	mov	rbx, QWORD PTR [rsp+72]
; File c:\program files (x86)\microsoft visual studio\2017\community\vc\tools\msvc\14.16.27023\include\tuple
; Line 236
	mov	QWORD PTR [rax], rcx
	mov	rcx, QWORD PTR [rdi]
	mov	QWORD PTR [rax+8], rcx
; File c:\program files (x86)\microsoft visual studio\2017\community\vc\tools\msvc\14.16.27023\include\xutility
; Line 277
	mov	QWORD PTR [rsi], rax
; File c:\program files (x86)\microsoft visual studio\2017\community\vc\tools\msvc\14.16.27023\include\memory
; Line 2539
	mov	rax, rsi
; Line 2540
	mov	rsi, QWORD PTR [rsp+80]
	add	rsp, 48					; 00000030H
	pop	rdi
	ret	0
??$make_unique@V?$tuple@P8MainGame@@EAAXXZPEAV1@@std@@P8MainGame@@EAAXXZPEAV3@$0A@@std@@YA?AV?$unique_ptr@V?$tuple@P8MainGame@@EAAXXZPEAV1@@std@@U?$default_delete@V?$tuple@P8MainGame@@EAAXXZPEAV1@@std@@@2@@0@$$QEAP8MainGame@@EAAXXZ$$QEAPEAV2@@Z ENDP ; std::make_unique<std::tuple<void (__cdecl MainGame::*)(void),MainGame *>,void (__cdecl MainGame::*)(void),MainGame *,0>
_TEXT	ENDS
; Function compile flags: /Ogtpy
;	COMDAT ??$_Launch@V?$unique_ptr@V?$tuple@P8MainGame@@EAAXXZPEAV1@@std@@U?$default_delete@V?$tuple@P8MainGame@@EAAXXZPEAV1@@std@@@2@@std@@@std@@YAXPEAU_Thrd_imp_t@@$$QEAV?$unique_ptr@V?$tuple@P8MainGame@@EAAXXZPEAV1@@std@@U?$default_delete@V?$tuple@P8MainGame@@EAAXXZPEAV1@@std@@@2@@0@@Z
_TEXT	SEGMENT
$T24 = 32
_Launcher$ = 40
_Cnd_cleaner$25 = 80
_Mtx_cleaner$26 = 96
__$ArrayPad$ = 112
_Thr$ = 160
_Tg$ = 168
??$_Launch@V?$unique_ptr@V?$tuple@P8MainGame@@EAAXXZPEAV1@@std@@U?$default_delete@V?$tuple@P8MainGame@@EAAXXZPEAV1@@std@@@2@@std@@@std@@YAXPEAU_Thrd_imp_t@@$$QEAV?$unique_ptr@V?$tuple@P8MainGame@@EAAXXZPEAV1@@std@@U?$default_delete@V?$tuple@P8MainGame@@EAAXXZPEAV1@@std@@@2@@0@@Z PROC ; std::_Launch<std::unique_ptr<std::tuple<void (__cdecl MainGame::*)(void),MainGame *>,std::default_delete<std::tuple<void (__cdecl MainGame::*)(void),MainGame *> > > >, COMDAT
; File c:\program files (x86)\microsoft visual studio\2017\community\vc\tools\msvc\14.16.27023\include\thr\xthread
; Line 256
$LN148:
	push	rbp
	push	rsi
	push	rdi
	mov	rbp, rsp
	sub	rsp, 128				; 00000080H
	mov	QWORD PTR $T24[rbp-128], -2
	mov	QWORD PTR [rsp+176], rbx
	mov	rax, QWORD PTR __security_cookie
	xor	rax, rsp
	mov	QWORD PTR __$ArrayPad$[rbp-128], rax
	mov	rdi, rdx
	mov	rsi, rcx
	xor	eax, eax
	mov	QWORD PTR _Launcher$[rbp-128], rax
	mov	QWORD PTR _Launcher$[rbp-120], rax
	mov	QWORD PTR _Launcher$[rbp-112], rax
	mov	QWORD PTR _Launcher$[rbp-104], rax
	mov	QWORD PTR _Launcher$[rbp-96], rax
; Line 92
	lea	rcx, QWORD PTR _Launcher$[rbp-120]
	call	QWORD PTR __imp__Cnd_init
; Line 36
	test	eax, eax
	je	SHORT $LN19@Launch
; Line 37
	mov	ecx, eax
	call	QWORD PTR __imp_?_Throw_C_error@std@@YAXH@Z
$LN19@Launch:
	xor	eax, eax
	mov	QWORD PTR _Cnd_cleaner$25[rbp-128], rax
; Line 120
	mov	BYTE PTR _Cnd_cleaner$25[rbp-128], 1
	mov	rax, QWORD PTR _Launcher$[rbp-120]
	mov	QWORD PTR _Cnd_cleaner$25[rbp-120], rax
; Line 67
	mov	ebx, 1
	mov	edx, ebx
	lea	rcx, QWORD PTR _Launcher$[rbp-112]
	call	QWORD PTR __imp__Mtx_init
; Line 36
	test	eax, eax
	je	SHORT $LN28@Launch
; Line 37
	mov	ecx, eax
	call	QWORD PTR __imp_?_Throw_C_error@std@@YAXH@Z
$LN28@Launch:
	xor	eax, eax
	mov	QWORD PTR _Mtx_cleaner$26[rbp-128], rax
; Line 144
	mov	BYTE PTR _Mtx_cleaner$26[rbp-128], bl
	mov	rcx, QWORD PTR _Launcher$[rbp-112]
	mov	QWORD PTR _Mtx_cleaner$26[rbp-120], rcx
; Line 175
	mov	BYTE PTR _Launcher$[rbp-104], al
; Line 72
	call	QWORD PTR __imp__Mtx_lock
; Line 36
	test	eax, eax
	je	SHORT $LN37@Launch
; Line 37
	mov	ecx, eax
	call	QWORD PTR __imp_?_Throw_C_error@std@@YAXH@Z
	npad	1
$LN37@Launch:
; Line 225
	lea	rax, OFFSET FLAT:??_7?$_LaunchPad@V?$unique_ptr@V?$tuple@P8MainGame@@EAAXXZPEAV1@@std@@U?$default_delete@V?$tuple@P8MainGame@@EAAXXZPEAV1@@std@@@2@@std@@@std@@6B@
	mov	QWORD PTR _Launcher$[rbp-128], rax
; File c:\program files (x86)\microsoft visual studio\2017\community\vc\tools\msvc\14.16.27023\include\memory
; Line 2312
	mov	rax, QWORD PTR [rdi]
; Line 2323
	mov	QWORD PTR [rdi], 0
; File c:\program files (x86)\microsoft visual studio\2017\community\vc\tools\msvc\14.16.27023\include\xutility
; Line 286
	mov	QWORD PTR _Launcher$[rbp-96], rax
; File c:\program files (x86)\microsoft visual studio\2017\community\vc\tools\msvc\14.16.27023\include\thr\xthread
; Line 51
	lea	r8, QWORD PTR _Launcher$[rbp-128]
	lea	rdx, OFFSET FLAT:?_Call_func@_Pad@std@@CAIPEAX@Z ; std::_Pad::_Call_func
	mov	rcx, rsi
	call	QWORD PTR __imp__Thrd_start
; Line 52
	cmp	eax, 4
	cmovne	ebx, eax
; Line 36
	test	ebx, ebx
	je	SHORT $LN143@Launch
; Line 37
	mov	ecx, ebx
	call	QWORD PTR __imp_?_Throw_C_error@std@@YAXH@Z
$LN143@Launch:
; Line 191
	cmp	BYTE PTR _Launcher$[rbp-104], 0
	jne	SHORT $LN83@Launch
	npad	7
$LL82@Launch:
; Line 97
	mov	rdx, QWORD PTR _Launcher$[rbp-112]
	mov	rcx, QWORD PTR _Launcher$[rbp-120]
	call	QWORD PTR __imp__Cnd_wait
; Line 36
	test	eax, eax
	je	SHORT $LN93@Launch
; Line 37
	mov	ecx, eax
	call	QWORD PTR __imp_?_Throw_C_error@std@@YAXH@Z
$LN93@Launch:
; Line 191
	cmp	BYTE PTR _Launcher$[rbp-104], 0
	je	SHORT $LL82@Launch
$LN83@Launch:
; File c:\program files (x86)\microsoft visual studio\2017\community\vc\tools\msvc\14.16.27023\include\memory
; Line 2294
	mov	rcx, QWORD PTR _Launcher$[rbp-96]
	test	rcx, rcx
	je	SHORT $LN119@Launch
; Line 2084
	mov	edx, 16
	call	??3@YAXPEAX_K@Z				; operator delete
	npad	1
$LN119@Launch:
; File c:\program files (x86)\microsoft visual studio\2017\community\vc\tools\msvc\14.16.27023\include\thr\xthread
; Line 120
	mov	rdi, QWORD PTR _Launcher$[rbp-120]
; Line 144
	mov	rbx, QWORD PTR _Launcher$[rbp-112]
; Line 87
	mov	rcx, rbx
	call	QWORD PTR __imp__Mtx_unlock
; Line 36
	test	eax, eax
	je	SHORT $LN135@Launch
; Line 37
	mov	ecx, eax
	call	QWORD PTR __imp_?_Throw_C_error@std@@YAXH@Z
$LN135@Launch:
; Line 151
	mov	rcx, rbx
	call	QWORD PTR __imp__Mtx_destroy
; Line 127
	mov	rcx, rdi
	call	QWORD PTR __imp__Cnd_destroy
	npad	1
; Line 259
	mov	rcx, QWORD PTR __$ArrayPad$[rbp-128]
	xor	rcx, rsp
	call	__security_check_cookie
	mov	rbx, QWORD PTR [rsp+176]
	add	rsp, 128				; 00000080H
	pop	rdi
	pop	rsi
	pop	rbp
	ret	0
??$_Launch@V?$unique_ptr@V?$tuple@P8MainGame@@EAAXXZPEAV1@@std@@U?$default_delete@V?$tuple@P8MainGame@@EAAXXZPEAV1@@std@@@2@@std@@@std@@YAXPEAU_Thrd_imp_t@@$$QEAV?$unique_ptr@V?$tuple@P8MainGame@@EAAXXZPEAV1@@std@@U?$default_delete@V?$tuple@P8MainGame@@EAAXXZPEAV1@@std@@@2@@0@@Z ENDP ; std::_Launch<std::unique_ptr<std::tuple<void (__cdecl MainGame::*)(void),MainGame *>,std::default_delete<std::tuple<void (__cdecl MainGame::*)(void),MainGame *> > > >
_TEXT	ENDS
;	COMDAT text$x
text$x	SEGMENT
$T24 = 32
_Launcher$ = 40
_Cnd_cleaner$25 = 80
_Mtx_cleaner$26 = 96
__$ArrayPad$ = 112
_Thr$ = 160
_Tg$ = 168
?dtor$3@?0???$_Launch@V?$unique_ptr@V?$tuple@P8MainGame@@EAAXXZPEAV1@@std@@U?$default_delete@V?$tuple@P8MainGame@@EAAXXZPEAV1@@std@@@2@@std@@@std@@YAXPEAU_Thrd_imp_t@@$$QEAV?$unique_ptr@V?$tuple@P8MainGame@@EAAXXZPEAV1@@std@@U?$default_delete@V?$tuple@P8MainGame@@EAAXXZPEAV1@@std@@@2@@0@@Z@4HA PROC ; `std::_Launch<std::unique_ptr<std::tuple<void (__cdecl MainGame::*)(void),MainGame *>,std::default_delete<std::tuple<void (__cdecl MainGame::*)(void),MainGame *> > > >'::`1'::dtor$3
	lea	rcx, QWORD PTR _Cnd_cleaner$25[rdx]
	jmp	??1_Auto_cnd@std@@QEAA@XZ		; std::_Auto_cnd::~_Auto_cnd
?dtor$3@?0???$_Launch@V?$unique_ptr@V?$tuple@P8MainGame@@EAAXXZPEAV1@@std@@U?$default_delete@V?$tuple@P8MainGame@@EAAXXZPEAV1@@std@@@2@@std@@@std@@YAXPEAU_Thrd_imp_t@@$$QEAV?$unique_ptr@V?$tuple@P8MainGame@@EAAXXZPEAV1@@std@@U?$default_delete@V?$tuple@P8MainGame@@EAAXXZPEAV1@@std@@@2@@0@@Z@4HA ENDP ; `std::_Launch<std::unique_ptr<std::tuple<void (__cdecl MainGame::*)(void),MainGame *>,std::default_delete<std::tuple<void (__cdecl MainGame::*)(void),MainGame *> > > >'::`1'::dtor$3
$T24 = 32
_Launcher$ = 40
_Cnd_cleaner$25 = 80
_Mtx_cleaner$26 = 96
__$ArrayPad$ = 112
_Thr$ = 160
_Tg$ = 168
?dtor$4@?0???$_Launch@V?$unique_ptr@V?$tuple@P8MainGame@@EAAXXZPEAV1@@std@@U?$default_delete@V?$tuple@P8MainGame@@EAAXXZPEAV1@@std@@@2@@std@@@std@@YAXPEAU_Thrd_imp_t@@$$QEAV?$unique_ptr@V?$tuple@P8MainGame@@EAAXXZPEAV1@@std@@U?$default_delete@V?$tuple@P8MainGame@@EAAXXZPEAV1@@std@@@2@@0@@Z@4HA PROC ; `std::_Launch<std::unique_ptr<std::tuple<void (__cdecl MainGame::*)(void),MainGame *>,std::default_delete<std::tuple<void (__cdecl MainGame::*)(void),MainGame *> > > >'::`1'::dtor$4
	lea	rcx, QWORD PTR _Mtx_cleaner$26[rdx]
	jmp	??1_Auto_mtx@std@@QEAA@XZ		; std::_Auto_mtx::~_Auto_mtx
?dtor$4@?0???$_Launch@V?$unique_ptr@V?$tuple@P8MainGame@@EAAXXZPEAV1@@std@@U?$default_delete@V?$tuple@P8MainGame@@EAAXXZPEAV1@@std@@@2@@std@@@std@@YAXPEAU_Thrd_imp_t@@$$QEAV?$unique_ptr@V?$tuple@P8MainGame@@EAAXXZPEAV1@@std@@U?$default_delete@V?$tuple@P8MainGame@@EAAXXZPEAV1@@std@@@2@@0@@Z@4HA ENDP ; `std::_Launch<std::unique_ptr<std::tuple<void (__cdecl MainGame::*)(void),MainGame *>,std::default_delete<std::tuple<void (__cdecl MainGame::*)(void),MainGame *> > > >'::`1'::dtor$4
$T24 = 32
_Launcher$ = 40
_Cnd_cleaner$25 = 80
_Mtx_cleaner$26 = 96
__$ArrayPad$ = 112
_Thr$ = 160
_Tg$ = 168
?dtor$0@?0???$_Launch@V?$unique_ptr@V?$tuple@P8MainGame@@EAAXXZPEAV1@@std@@U?$default_delete@V?$tuple@P8MainGame@@EAAXXZPEAV1@@std@@@2@@std@@@std@@YAXPEAU_Thrd_imp_t@@$$QEAV?$unique_ptr@V?$tuple@P8MainGame@@EAAXXZPEAV1@@std@@U?$default_delete@V?$tuple@P8MainGame@@EAAXXZPEAV1@@std@@@2@@0@@Z@4HA PROC ; `std::_Launch<std::unique_ptr<std::tuple<void (__cdecl MainGame::*)(void),MainGame *>,std::default_delete<std::tuple<void (__cdecl MainGame::*)(void),MainGame *> > > >'::`1'::dtor$0
	lea	rcx, QWORD PTR _Launcher$[rdx]
	jmp	??1?$_LaunchPad@V?$unique_ptr@V?$tuple@P8MainGame@@EAAXXZPEAV1@@std@@U?$default_delete@V?$tuple@P8MainGame@@EAAXXZPEAV1@@std@@@2@@std@@@std@@QEAA@XZ
?dtor$0@?0???$_Launch@V?$unique_ptr@V?$tuple@P8MainGame@@EAAXXZPEAV1@@std@@U?$default_delete@V?$tuple@P8MainGame@@EAAXXZPEAV1@@std@@@2@@std@@@std@@YAXPEAU_Thrd_imp_t@@$$QEAV?$unique_ptr@V?$tuple@P8MainGame@@EAAXXZPEAV1@@std@@U?$default_delete@V?$tuple@P8MainGame@@EAAXXZPEAV1@@std@@@2@@0@@Z@4HA ENDP ; `std::_Launch<std::unique_ptr<std::tuple<void (__cdecl MainGame::*)(void),MainGame *>,std::default_delete<std::tuple<void (__cdecl MainGame::*)(void),MainGame *> > > >'::`1'::dtor$0
text$x	ENDS
; Function compile flags: /Ogtpy
;	COMDAT text$x
text$x	SEGMENT
$T24 = 32
_Launcher$ = 40
_Cnd_cleaner$25 = 80
_Mtx_cleaner$26 = 96
__$ArrayPad$ = 112
_Thr$ = 160
_Tg$ = 168
?dtor$3@?0???$_Launch@V?$unique_ptr@V?$tuple@P8MainGame@@EAAXXZPEAV1@@std@@U?$default_delete@V?$tuple@P8MainGame@@EAAXXZPEAV1@@std@@@2@@std@@@std@@YAXPEAU_Thrd_imp_t@@$$QEAV?$unique_ptr@V?$tuple@P8MainGame@@EAAXXZPEAV1@@std@@U?$default_delete@V?$tuple@P8MainGame@@EAAXXZPEAV1@@std@@@2@@0@@Z@4HA PROC ; `std::_Launch<std::unique_ptr<std::tuple<void (__cdecl MainGame::*)(void),MainGame *>,std::default_delete<std::tuple<void (__cdecl MainGame::*)(void),MainGame *> > > >'::`1'::dtor$3
	lea	rcx, QWORD PTR _Cnd_cleaner$25[rdx]
	jmp	??1_Auto_cnd@std@@QEAA@XZ		; std::_Auto_cnd::~_Auto_cnd
?dtor$3@?0???$_Launch@V?$unique_ptr@V?$tuple@P8MainGame@@EAAXXZPEAV1@@std@@U?$default_delete@V?$tuple@P8MainGame@@EAAXXZPEAV1@@std@@@2@@std@@@std@@YAXPEAU_Thrd_imp_t@@$$QEAV?$unique_ptr@V?$tuple@P8MainGame@@EAAXXZPEAV1@@std@@U?$default_delete@V?$tuple@P8MainGame@@EAAXXZPEAV1@@std@@@2@@0@@Z@4HA ENDP ; `std::_Launch<std::unique_ptr<std::tuple<void (__cdecl MainGame::*)(void),MainGame *>,std::default_delete<std::tuple<void (__cdecl MainGame::*)(void),MainGame *> > > >'::`1'::dtor$3
text$x	ENDS
; Function compile flags: /Ogtpy
;	COMDAT text$x
text$x	SEGMENT
$T24 = 32
_Launcher$ = 40
_Cnd_cleaner$25 = 80
_Mtx_cleaner$26 = 96
__$ArrayPad$ = 112
_Thr$ = 160
_Tg$ = 168
?dtor$4@?0???$_Launch@V?$unique_ptr@V?$tuple@P8MainGame@@EAAXXZPEAV1@@std@@U?$default_delete@V?$tuple@P8MainGame@@EAAXXZPEAV1@@std@@@2@@std@@@std@@YAXPEAU_Thrd_imp_t@@$$QEAV?$unique_ptr@V?$tuple@P8MainGame@@EAAXXZPEAV1@@std@@U?$default_delete@V?$tuple@P8MainGame@@EAAXXZPEAV1@@std@@@2@@0@@Z@4HA PROC ; `std::_Launch<std::unique_ptr<std::tuple<void (__cdecl MainGame::*)(void),MainGame *>,std::default_delete<std::tuple<void (__cdecl MainGame::*)(void),MainGame *> > > >'::`1'::dtor$4
	lea	rcx, QWORD PTR _Mtx_cleaner$26[rdx]
	jmp	??1_Auto_mtx@std@@QEAA@XZ		; std::_Auto_mtx::~_Auto_mtx
?dtor$4@?0???$_Launch@V?$unique_ptr@V?$tuple@P8MainGame@@EAAXXZPEAV1@@std@@U?$default_delete@V?$tuple@P8MainGame@@EAAXXZPEAV1@@std@@@2@@std@@@std@@YAXPEAU_Thrd_imp_t@@$$QEAV?$unique_ptr@V?$tuple@P8MainGame@@EAAXXZPEAV1@@std@@U?$default_delete@V?$tuple@P8MainGame@@EAAXXZPEAV1@@std@@@2@@0@@Z@4HA ENDP ; `std::_Launch<std::unique_ptr<std::tuple<void (__cdecl MainGame::*)(void),MainGame *>,std::default_delete<std::tuple<void (__cdecl MainGame::*)(void),MainGame *> > > >'::`1'::dtor$4
text$x	ENDS
; Function compile flags: /Ogtpy
;	COMDAT text$x
text$x	SEGMENT
$T24 = 32
_Launcher$ = 40
_Cnd_cleaner$25 = 80
_Mtx_cleaner$26 = 96
__$ArrayPad$ = 112
_Thr$ = 160
_Tg$ = 168
?dtor$0@?0???$_Launch@V?$unique_ptr@V?$tuple@P8MainGame@@EAAXXZPEAV1@@std@@U?$default_delete@V?$tuple@P8MainGame@@EAAXXZPEAV1@@std@@@2@@std@@@std@@YAXPEAU_Thrd_imp_t@@$$QEAV?$unique_ptr@V?$tuple@P8MainGame@@EAAXXZPEAV1@@std@@U?$default_delete@V?$tuple@P8MainGame@@EAAXXZPEAV1@@std@@@2@@0@@Z@4HA PROC ; `std::_Launch<std::unique_ptr<std::tuple<void (__cdecl MainGame::*)(void),MainGame *>,std::default_delete<std::tuple<void (__cdecl MainGame::*)(void),MainGame *> > > >'::`1'::dtor$0
	lea	rcx, QWORD PTR _Launcher$[rdx]
	jmp	??1?$_LaunchPad@V?$unique_ptr@V?$tuple@P8MainGame@@EAAXXZPEAV1@@std@@U?$default_delete@V?$tuple@P8MainGame@@EAAXXZPEAV1@@std@@@2@@std@@@std@@QEAA@XZ
?dtor$0@?0???$_Launch@V?$unique_ptr@V?$tuple@P8MainGame@@EAAXXZPEAV1@@std@@U?$default_delete@V?$tuple@P8MainGame@@EAAXXZPEAV1@@std@@@2@@std@@@std@@YAXPEAU_Thrd_imp_t@@$$QEAV?$unique_ptr@V?$tuple@P8MainGame@@EAAXXZPEAV1@@std@@U?$default_delete@V?$tuple@P8MainGame@@EAAXXZPEAV1@@std@@@2@@0@@Z@4HA ENDP ; `std::_Launch<std::unique_ptr<std::tuple<void (__cdecl MainGame::*)(void),MainGame *>,std::default_delete<std::tuple<void (__cdecl MainGame::*)(void),MainGame *> > > >'::`1'::dtor$0
text$x	ENDS
; Function compile flags: /Ogtpy
;	COMDAT ??1?$_LaunchPad@V?$unique_ptr@V?$tuple@P8MainGame@@EAAXXZPEAV1@@std@@U?$default_delete@V?$tuple@P8MainGame@@EAAXXZPEAV1@@std@@@2@@std@@@std@@QEAA@XZ
_TEXT	SEGMENT
$T12 = 32
this$ = 64
??1?$_LaunchPad@V?$unique_ptr@V?$tuple@P8MainGame@@EAAXXZPEAV1@@std@@U?$default_delete@V?$tuple@P8MainGame@@EAAXXZPEAV1@@std@@@2@@std@@@std@@QEAA@XZ PROC ; std::_LaunchPad<std::unique_ptr<std::tuple<void (__cdecl MainGame::*)(void),MainGame *>,std::default_delete<std::tuple<void (__cdecl MainGame::*)(void),MainGame *> > > >::~_LaunchPad<std::unique_ptr<std::tuple<void (__cdecl MainGame::*)(void),MainGame *>,std::default_delete<std::tuple<void (__cdecl MainGame::*)(void),MainGame *> > > >, COMDAT
$LN50:
	push	rdi
	sub	rsp, 48					; 00000030H
	mov	QWORD PTR $T12[rsp], -2
	mov	QWORD PTR [rsp+72], rbx
	mov	rbx, rcx
; File c:\program files (x86)\microsoft visual studio\2017\community\vc\tools\msvc\14.16.27023\include\memory
; Line 2312
	mov	rcx, QWORD PTR [rcx+32]
; Line 2294
	test	rcx, rcx
	je	SHORT $LN24@LaunchPad
; Line 2084
	mov	edx, 16
	call	??3@YAXPEAX_K@Z				; operator delete
	npad	1
$LN24@LaunchPad:
; File c:\program files (x86)\microsoft visual studio\2017\community\vc\tools\msvc\14.16.27023\include\thr\xthread
; Line 120
	mov	rdi, QWORD PTR [rbx+8]
; Line 184
	mov	rbx, QWORD PTR [rbx+16]
; Line 87
	mov	rcx, rbx
	call	QWORD PTR __imp__Mtx_unlock
	npad	1
; Line 36
	test	eax, eax
	je	SHORT $LN40@LaunchPad
; Line 37
	mov	ecx, eax
	call	QWORD PTR __imp_?_Throw_C_error@std@@YAXH@Z
	npad	1
$LN40@LaunchPad:
; Line 151
	mov	rcx, rbx
	call	QWORD PTR __imp__Mtx_destroy
	npad	1
; Line 127
	mov	rcx, rdi
	call	QWORD PTR __imp__Cnd_destroy
	npad	1
	mov	rbx, QWORD PTR [rsp+72]
	add	rsp, 48					; 00000030H
	pop	rdi
	ret	0
??1?$_LaunchPad@V?$unique_ptr@V?$tuple@P8MainGame@@EAAXXZPEAV1@@std@@U?$default_delete@V?$tuple@P8MainGame@@EAAXXZPEAV1@@std@@@2@@std@@@std@@QEAA@XZ ENDP ; std::_LaunchPad<std::unique_ptr<std::tuple<void (__cdecl MainGame::*)(void),MainGame *>,std::default_delete<std::tuple<void (__cdecl MainGame::*)(void),MainGame *> > > >::~_LaunchPad<std::unique_ptr<std::tuple<void (__cdecl MainGame::*)(void),MainGame *>,std::default_delete<std::tuple<void (__cdecl MainGame::*)(void),MainGame *> > > >
_TEXT	ENDS
; Function compile flags: /Ogtpy
;	COMDAT ?__autoclassinit2@?$_LaunchPad@V?$unique_ptr@V?$tuple@P8MainGame@@EAAXXZPEAV1@@std@@U?$default_delete@V?$tuple@P8MainGame@@EAAXXZPEAV1@@std@@@2@@std@@@std@@QEAAX_K@Z
_TEXT	SEGMENT
this$ = 8
classSize$dead$ = 16
?__autoclassinit2@?$_LaunchPad@V?$unique_ptr@V?$tuple@P8MainGame@@EAAXXZPEAV1@@std@@U?$default_delete@V?$tuple@P8MainGame@@EAAXXZPEAV1@@std@@@2@@std@@@std@@QEAAX_K@Z PROC ; std::_LaunchPad<std::unique_ptr<std::tuple<void (__cdecl MainGame::*)(void),MainGame *>,std::default_delete<std::tuple<void (__cdecl MainGame::*)(void),MainGame *> > > >::__autoclassinit2, COMDAT
	xor	eax, eax
	mov	QWORD PTR [rcx], rax
	mov	QWORD PTR [rcx+8], rax
	mov	QWORD PTR [rcx+16], rax
	mov	QWORD PTR [rcx+24], rax
	mov	QWORD PTR [rcx+32], rax
	ret	0
?__autoclassinit2@?$_LaunchPad@V?$unique_ptr@V?$tuple@P8MainGame@@EAAXXZPEAV1@@std@@U?$default_delete@V?$tuple@P8MainGame@@EAAXXZPEAV1@@std@@@2@@std@@@std@@QEAAX_K@Z ENDP ; std::_LaunchPad<std::unique_ptr<std::tuple<void (__cdecl MainGame::*)(void),MainGame *>,std::default_delete<std::tuple<void (__cdecl MainGame::*)(void),MainGame *> > > >::__autoclassinit2
_TEXT	ENDS
; Function compile flags: /Ogtpy
;	COMDAT ?_Go@?$_LaunchPad@V?$unique_ptr@V?$tuple@P8MainGame@@EAAXXZPEAV1@@std@@U?$default_delete@V?$tuple@P8MainGame@@EAAXXZPEAV1@@std@@@2@@std@@@std@@UEAAXXZ
_TEXT	SEGMENT
$T31 = 32
this$ = 64
?_Go@?$_LaunchPad@V?$unique_ptr@V?$tuple@P8MainGame@@EAAXXZPEAV1@@std@@U?$default_delete@V?$tuple@P8MainGame@@EAAXXZPEAV1@@std@@@2@@std@@@std@@UEAAXXZ PROC ; std::_LaunchPad<std::unique_ptr<std::tuple<void (__cdecl MainGame::*)(void),MainGame *>,std::default_delete<std::tuple<void (__cdecl MainGame::*)(void),MainGame *> > > >::_Go, COMDAT
; File c:\program files (x86)\microsoft visual studio\2017\community\vc\tools\msvc\14.16.27023\include\thr\xthread
; Line 229
$LN110:
	push	rdi
	sub	rsp, 48					; 00000030H
	mov	QWORD PTR $T31[rsp], -2
	mov	QWORD PTR [rsp+72], rbx
	mov	rbx, rcx
; File c:\program files (x86)\microsoft visual studio\2017\community\vc\tools\msvc\14.16.27023\include\memory
; Line 2312
	mov	rdi, QWORD PTR [rcx+32]
; Line 2323
	mov	QWORD PTR [rcx+32], 0
; File c:\program files (x86)\microsoft visual studio\2017\community\vc\tools\msvc\14.16.27023\include\thr\xthread
; Line 72
	mov	rcx, QWORD PTR [rcx+16]
	call	QWORD PTR __imp__Mtx_lock
; Line 36
	test	eax, eax
	je	SHORT $LN45@Go
; Line 37
	mov	ecx, eax
	call	QWORD PTR __imp_?_Throw_C_error@std@@YAXH@Z
$LN45@Go:
; Line 198
	mov	BYTE PTR [rbx+24], 1
; Line 113
	mov	rcx, QWORD PTR [rbx+8]
	call	QWORD PTR __imp__Cnd_signal
; Line 36
	test	eax, eax
	je	SHORT $LN50@Go
; Line 37
	mov	ecx, eax
	call	QWORD PTR __imp_?_Throw_C_error@std@@YAXH@Z
$LN50@Go:
; Line 87
	mov	rcx, QWORD PTR [rbx+16]
	call	QWORD PTR __imp__Mtx_unlock
; Line 36
	test	eax, eax
	je	SHORT $LN55@Go
; Line 37
	mov	ecx, eax
	call	QWORD PTR __imp_?_Throw_C_error@std@@YAXH@Z
$LN55@Go:
; File c:\program files (x86)\microsoft visual studio\2017\community\vc\tools\msvc\14.16.27023\include\type_traits
	mov	rax, QWORD PTR [rdi+8]
	mov	rcx, QWORD PTR [rdi]
	call	rax
; File c:\program files (x86)\microsoft visual studio\2017\community\vc\tools\msvc\14.16.27023\include\thr\xthread
; Line 247
	call	QWORD PTR __imp__Cnd_do_broadcast_at_thread_exit
; File c:\program files (x86)\microsoft visual studio\2017\community\vc\tools\msvc\14.16.27023\include\memory
; Line 2084
	mov	edx, 16
	mov	rcx, rdi
	call	??3@YAXPEAX_K@Z				; operator delete
	npad	1
; File c:\program files (x86)\microsoft visual studio\2017\community\vc\tools\msvc\14.16.27023\include\thr\xthread
; Line 231
	mov	rbx, QWORD PTR [rsp+72]
	add	rsp, 48					; 00000030H
	pop	rdi
	ret	0
?_Go@?$_LaunchPad@V?$unique_ptr@V?$tuple@P8MainGame@@EAAXXZPEAV1@@std@@U?$default_delete@V?$tuple@P8MainGame@@EAAXXZPEAV1@@std@@@2@@std@@@std@@UEAAXXZ ENDP ; std::_LaunchPad<std::unique_ptr<std::tuple<void (__cdecl MainGame::*)(void),MainGame *>,std::default_delete<std::tuple<void (__cdecl MainGame::*)(void),MainGame *> > > >::_Go
_TEXT	ENDS
; Function compile flags: /Ogtpy
;	COMDAT ?_Run@?$_LaunchPad@V?$unique_ptr@V?$tuple@P8MainGame@@EAAXXZPEAV1@@std@@U?$default_delete@V?$tuple@P8MainGame@@EAAXXZPEAV1@@std@@@2@@std@@@std@@CAXPEAV12@@Z
_TEXT	SEGMENT
$T31 = 32
_Ln$ = 64
?_Run@?$_LaunchPad@V?$unique_ptr@V?$tuple@P8MainGame@@EAAXXZPEAV1@@std@@U?$default_delete@V?$tuple@P8MainGame@@EAAXXZPEAV1@@std@@@2@@std@@@std@@CAXPEAV12@@Z PROC ; std::_LaunchPad<std::unique_ptr<std::tuple<void (__cdecl MainGame::*)(void),MainGame *>,std::default_delete<std::tuple<void (__cdecl MainGame::*)(void),MainGame *> > > >::_Run, COMDAT
; File c:\program files (x86)\microsoft visual studio\2017\community\vc\tools\msvc\14.16.27023\include\thr\xthread
; Line 242
$LN107:
	push	rdi
	sub	rsp, 48					; 00000030H
	mov	QWORD PTR $T31[rsp], -2
	mov	QWORD PTR [rsp+72], rbx
	mov	rbx, rcx
; File c:\program files (x86)\microsoft visual studio\2017\community\vc\tools\msvc\14.16.27023\include\memory
; Line 2312
	mov	rdi, QWORD PTR [rcx+32]
; Line 2323
	mov	QWORD PTR [rcx+32], 0
; File c:\program files (x86)\microsoft visual studio\2017\community\vc\tools\msvc\14.16.27023\include\thr\xthread
; Line 72
	mov	rcx, QWORD PTR [rcx+16]
	call	QWORD PTR __imp__Mtx_lock
	npad	1
; Line 36
	test	eax, eax
	je	SHORT $LN42@Run
; Line 37
	mov	ecx, eax
	call	QWORD PTR __imp_?_Throw_C_error@std@@YAXH@Z
	npad	1
$LN42@Run:
; Line 198
	mov	BYTE PTR [rbx+24], 1
; Line 113
	mov	rcx, QWORD PTR [rbx+8]
	call	QWORD PTR __imp__Cnd_signal
	npad	1
; Line 36
	test	eax, eax
	je	SHORT $LN47@Run
; Line 37
	mov	ecx, eax
	call	QWORD PTR __imp_?_Throw_C_error@std@@YAXH@Z
	npad	1
$LN47@Run:
; Line 87
	mov	rcx, QWORD PTR [rbx+16]
	call	QWORD PTR __imp__Mtx_unlock
	npad	1
; Line 36
	test	eax, eax
	je	SHORT $LN52@Run
; Line 37
	mov	ecx, eax
	call	QWORD PTR __imp_?_Throw_C_error@std@@YAXH@Z
	npad	1
$LN52@Run:
; File c:\program files (x86)\microsoft visual studio\2017\community\vc\tools\msvc\14.16.27023\include\type_traits
	mov	rcx, QWORD PTR [rdi]
	call	QWORD PTR [rdi+8]
	npad	1
; File c:\program files (x86)\microsoft visual studio\2017\community\vc\tools\msvc\14.16.27023\include\thr\xthread
; Line 247
	call	QWORD PTR __imp__Cnd_do_broadcast_at_thread_exit
	npad	1
; File c:\program files (x86)\microsoft visual studio\2017\community\vc\tools\msvc\14.16.27023\include\memory
; Line 2084
	mov	edx, 16
	mov	rcx, rdi
; File c:\program files (x86)\microsoft visual studio\2017\community\vc\tools\msvc\14.16.27023\include\thr\xthread
; Line 248
	mov	rbx, QWORD PTR [rsp+72]
	add	rsp, 48					; 00000030H
	pop	rdi
; File c:\program files (x86)\microsoft visual studio\2017\community\vc\tools\msvc\14.16.27023\include\memory
; Line 2084
	jmp	??3@YAXPEAX_K@Z				; operator delete
?_Run@?$_LaunchPad@V?$unique_ptr@V?$tuple@P8MainGame@@EAAXXZPEAV1@@std@@U?$default_delete@V?$tuple@P8MainGame@@EAAXXZPEAV1@@std@@@2@@std@@@std@@CAXPEAV12@@Z ENDP ; std::_LaunchPad<std::unique_ptr<std::tuple<void (__cdecl MainGame::*)(void),MainGame *>,std::default_delete<std::tuple<void (__cdecl MainGame::*)(void),MainGame *> > > >::_Run
_TEXT	ENDS
; Function compile flags: /Ogtpy
;	COMDAT ?__autoclassinit2@?$unique_ptr@V?$tuple@P8MainGame@@EAAXXZPEAV1@@std@@U?$default_delete@V?$tuple@P8MainGame@@EAAXXZPEAV1@@std@@@2@@std@@QEAAX_K@Z
_TEXT	SEGMENT
this$ = 8
classSize$dead$ = 16
?__autoclassinit2@?$unique_ptr@V?$tuple@P8MainGame@@EAAXXZPEAV1@@std@@U?$default_delete@V?$tuple@P8MainGame@@EAAXXZPEAV1@@std@@@2@@std@@QEAAX_K@Z PROC ; std::unique_ptr<std::tuple<void (__cdecl MainGame::*)(void),MainGame *>,std::default_delete<std::tuple<void (__cdecl MainGame::*)(void),MainGame *> > >::__autoclassinit2, COMDAT
	xor	eax, eax
	mov	QWORD PTR [rcx], rax
	ret	0
?__autoclassinit2@?$unique_ptr@V?$tuple@P8MainGame@@EAAXXZPEAV1@@std@@U?$default_delete@V?$tuple@P8MainGame@@EAAXXZPEAV1@@std@@@2@@std@@QEAAX_K@Z ENDP ; std::unique_ptr<std::tuple<void (__cdecl MainGame::*)(void),MainGame *>,std::default_delete<std::tuple<void (__cdecl MainGame::*)(void),MainGame *> > >::__autoclassinit2
_TEXT	ENDS
; Function compile flags: /Ogtpy
;	COMDAT ??D?$unique_ptr@V?$tuple@P8MainGame@@EAAXXZPEAV1@@std@@U?$default_delete@V?$tuple@P8MainGame@@EAAXXZPEAV1@@std@@@2@@std@@QEBAAEAV?$tuple@P8MainGame@@EAAXXZPEAV1@@1@XZ
_TEXT	SEGMENT
this$ = 8
??D?$unique_ptr@V?$tuple@P8MainGame@@EAAXXZPEAV1@@std@@U?$default_delete@V?$tuple@P8MainGame@@EAAXXZPEAV1@@std@@@2@@std@@QEBAAEAV?$tuple@P8MainGame@@EAAXXZPEAV1@@1@XZ PROC ; std::unique_ptr<std::tuple<void (__cdecl MainGame::*)(void),MainGame *>,std::default_delete<std::tuple<void (__cdecl MainGame::*)(void),MainGame *> > >::operator*, COMDAT
; File c:\program files (x86)\microsoft visual studio\2017\community\vc\tools\msvc\14.16.27023\include\memory
; Line 2302
	mov	rax, QWORD PTR [rcx]
; Line 2303
	ret	0
??D?$unique_ptr@V?$tuple@P8MainGame@@EAAXXZPEAV1@@std@@U?$default_delete@V?$tuple@P8MainGame@@EAAXXZPEAV1@@std@@@2@@std@@QEBAAEAV?$tuple@P8MainGame@@EAAXXZPEAV1@@1@XZ ENDP ; std::unique_ptr<std::tuple<void (__cdecl MainGame::*)(void),MainGame *>,std::default_delete<std::tuple<void (__cdecl MainGame::*)(void),MainGame *> > >::operator*
_TEXT	ENDS
; Function compile flags: /Ogtpy
;	COMDAT ??0?$unique_ptr@V?$tuple@P8MainGame@@EAAXXZPEAV1@@std@@U?$default_delete@V?$tuple@P8MainGame@@EAAXXZPEAV1@@std@@@2@@std@@QEAA@$$QEAV01@@Z
_TEXT	SEGMENT
this$ = 8
_Right$ = 16
??0?$unique_ptr@V?$tuple@P8MainGame@@EAAXXZPEAV1@@std@@U?$default_delete@V?$tuple@P8MainGame@@EAAXXZPEAV1@@std@@@2@@std@@QEAA@$$QEAV01@@Z PROC ; std::unique_ptr<std::tuple<void (__cdecl MainGame::*)(void),MainGame *>,std::default_delete<std::tuple<void (__cdecl MainGame::*)(void),MainGame *> > >::unique_ptr<std::tuple<void (__cdecl MainGame::*)(void),MainGame *>,std::default_delete<std::tuple<void (__cdecl MainGame::*)(void),MainGame *> > >, COMDAT
; File c:\program files (x86)\microsoft visual studio\2017\community\vc\tools\msvc\14.16.27023\include\memory
; Line 2238
	mov	rax, rcx
; Line 2312
	mov	rcx, QWORD PTR [rdx]
; Line 2323
	mov	QWORD PTR [rdx], 0
; File c:\program files (x86)\microsoft visual studio\2017\community\vc\tools\msvc\14.16.27023\include\xutility
; Line 286
	mov	QWORD PTR [rax], rcx
; File c:\program files (x86)\microsoft visual studio\2017\community\vc\tools\msvc\14.16.27023\include\memory
; Line 2239
	ret	0
??0?$unique_ptr@V?$tuple@P8MainGame@@EAAXXZPEAV1@@std@@U?$default_delete@V?$tuple@P8MainGame@@EAAXXZPEAV1@@std@@@2@@std@@QEAA@$$QEAV01@@Z ENDP ; std::unique_ptr<std::tuple<void (__cdecl MainGame::*)(void),MainGame *>,std::default_delete<std::tuple<void (__cdecl MainGame::*)(void),MainGame *> > >::unique_ptr<std::tuple<void (__cdecl MainGame::*)(void),MainGame *>,std::default_delete<std::tuple<void (__cdecl MainGame::*)(void),MainGame *> > >
_TEXT	ENDS
; Function compile flags: /Ogtpy
;	COMDAT ?release@?$unique_ptr@V?$tuple@P8MainGame@@EAAXXZPEAV1@@std@@U?$default_delete@V?$tuple@P8MainGame@@EAAXXZPEAV1@@std@@@2@@std@@QEAAPEAV?$tuple@P8MainGame@@EAAXXZPEAV1@@2@XZ
_TEXT	SEGMENT
this$ = 8
?release@?$unique_ptr@V?$tuple@P8MainGame@@EAAXXZPEAV1@@std@@U?$default_delete@V?$tuple@P8MainGame@@EAAXXZPEAV1@@std@@@2@@std@@QEAAPEAV?$tuple@P8MainGame@@EAAXXZPEAV1@@2@XZ PROC ; std::unique_ptr<std::tuple<void (__cdecl MainGame::*)(void),MainGame *>,std::default_delete<std::tuple<void (__cdecl MainGame::*)(void),MainGame *> > >::release, COMDAT
; File c:\program files (x86)\microsoft visual studio\2017\community\vc\tools\msvc\14.16.27023\include\memory
; Line 2312
	mov	rax, QWORD PTR [rcx]
; Line 2323
	mov	QWORD PTR [rcx], 0
; Line 2325
	ret	0
?release@?$unique_ptr@V?$tuple@P8MainGame@@EAAXXZPEAV1@@std@@U?$default_delete@V?$tuple@P8MainGame@@EAAXXZPEAV1@@std@@@2@@std@@QEAAPEAV?$tuple@P8MainGame@@EAAXXZPEAV1@@2@XZ ENDP ; std::unique_ptr<std::tuple<void (__cdecl MainGame::*)(void),MainGame *>,std::default_delete<std::tuple<void (__cdecl MainGame::*)(void),MainGame *> > >::release
_TEXT	ENDS
; Function compile flags: /Ogtpy
;	COMDAT ?_Myptr@?$_Unique_ptr_base@V?$tuple@P8MainGame@@EAAXXZPEAV1@@std@@U?$default_delete@V?$tuple@P8MainGame@@EAAXXZPEAV1@@std@@@2@@std@@QEAAAEAPEAV?$tuple@P8MainGame@@EAAXXZPEAV1@@2@XZ
_TEXT	SEGMENT
this$ = 8
?_Myptr@?$_Unique_ptr_base@V?$tuple@P8MainGame@@EAAXXZPEAV1@@std@@U?$default_delete@V?$tuple@P8MainGame@@EAAXXZPEAV1@@std@@@2@@std@@QEAAAEAPEAV?$tuple@P8MainGame@@EAAXXZPEAV1@@2@XZ PROC ; std::_Unique_ptr_base<std::tuple<void (__cdecl MainGame::*)(void),MainGame *>,std::default_delete<std::tuple<void (__cdecl MainGame::*)(void),MainGame *> > >::_Myptr, COMDAT
; File c:\program files (x86)\microsoft visual studio\2017\community\vc\tools\msvc\14.16.27023\include\memory
; Line 2159
	mov	rax, rcx
; Line 2160
	ret	0
?_Myptr@?$_Unique_ptr_base@V?$tuple@P8MainGame@@EAAXXZPEAV1@@std@@U?$default_delete@V?$tuple@P8MainGame@@EAAXXZPEAV1@@std@@@2@@std@@QEAAAEAPEAV?$tuple@P8MainGame@@EAAXXZPEAV1@@2@XZ ENDP ; std::_Unique_ptr_base<std::tuple<void (__cdecl MainGame::*)(void),MainGame *>,std::default_delete<std::tuple<void (__cdecl MainGame::*)(void),MainGame *> > >::_Myptr
_TEXT	ENDS
; Function compile flags: /Ogtpy
;	COMDAT ?_Get_second@?$_Compressed_pair@U?$default_delete@V?$tuple@P8MainGame@@EAAXXZPEAV1@@std@@@std@@PEAV?$tuple@P8MainGame@@EAAXXZPEAV1@@2@$00@std@@QEAAAEAPEAV?$tuple@P8MainGame@@EAAXXZPEAV1@@2@XZ
_TEXT	SEGMENT
this$ = 8
?_Get_second@?$_Compressed_pair@U?$default_delete@V?$tuple@P8MainGame@@EAAXXZPEAV1@@std@@@std@@PEAV?$tuple@P8MainGame@@EAAXXZPEAV1@@2@$00@std@@QEAAAEAPEAV?$tuple@P8MainGame@@EAAXXZPEAV1@@2@XZ PROC ; std::_Compressed_pair<std::default_delete<std::tuple<void (__cdecl MainGame::*)(void),MainGame *> >,std::tuple<void (__cdecl MainGame::*)(void),MainGame *> *,1>::_Get_second, COMDAT
; File c:\program files (x86)\microsoft visual studio\2017\community\vc\tools\msvc\14.16.27023\include\xutility
; Line 302
	mov	rax, rcx
; Line 303
	ret	0
?_Get_second@?$_Compressed_pair@U?$default_delete@V?$tuple@P8MainGame@@EAAXXZPEAV1@@std@@@std@@PEAV?$tuple@P8MainGame@@EAAXXZPEAV1@@2@$00@std@@QEAAAEAPEAV?$tuple@P8MainGame@@EAAXXZPEAV1@@2@XZ ENDP ; std::_Compressed_pair<std::default_delete<std::tuple<void (__cdecl MainGame::*)(void),MainGame *> >,std::tuple<void (__cdecl MainGame::*)(void),MainGame *> *,1>::_Get_second
_TEXT	ENDS
; Function compile flags: /Ogtpy
;	COMDAT ??$?0P8MainGame@@EAAXXZPEAV0@$0A@@?$tuple@P8MainGame@@EAAXXZPEAV1@@std@@QEAA@$$QEAP8MainGame@@EAAXXZ$$QEAPEAV2@@Z
_TEXT	SEGMENT
this$ = 8
_This_arg$ = 16
<_Rest_arg_0>$ = 24
??$?0P8MainGame@@EAAXXZPEAV0@$0A@@?$tuple@P8MainGame@@EAAXXZPEAV1@@std@@QEAA@$$QEAP8MainGame@@EAAXXZ$$QEAPEAV2@@Z PROC ; std::tuple<void (__cdecl MainGame::*)(void),MainGame *>::tuple<void (__cdecl MainGame::*)(void),MainGame *><void (__cdecl MainGame::*)(void),MainGame *,0>, COMDAT
; File c:\program files (x86)\microsoft visual studio\2017\community\vc\tools\msvc\14.16.27023\include\tuple
; Line 236
	mov	rax, QWORD PTR [r8]
	mov	QWORD PTR [rcx], rax
	mov	rax, QWORD PTR [rdx]
	mov	QWORD PTR [rcx+8], rax
; Line 470
	mov	rax, rcx
	ret	0
??$?0P8MainGame@@EAAXXZPEAV0@$0A@@?$tuple@P8MainGame@@EAAXXZPEAV1@@std@@QEAA@$$QEAP8MainGame@@EAAXXZ$$QEAPEAV2@@Z ENDP ; std::tuple<void (__cdecl MainGame::*)(void),MainGame *>::tuple<void (__cdecl MainGame::*)(void),MainGame *><void (__cdecl MainGame::*)(void),MainGame *,0>
_TEXT	ENDS
; Function compile flags: /Ogtpy
;	COMDAT ??$?0U?$default_delete@V?$tuple@P8MainGame@@EAAXXZPEAV1@@std@@@std@@$0A@@?$unique_ptr@V?$tuple@P8MainGame@@EAAXXZPEAV1@@std@@U?$default_delete@V?$tuple@P8MainGame@@EAAXXZPEAV1@@std@@@2@@std@@QEAA@PEAV?$tuple@P8MainGame@@EAAXXZPEAV1@@1@@Z
_TEXT	SEGMENT
this$ = 8
_Ptr$ = 16
??$?0U?$default_delete@V?$tuple@P8MainGame@@EAAXXZPEAV1@@std@@@std@@$0A@@?$unique_ptr@V?$tuple@P8MainGame@@EAAXXZPEAV1@@std@@U?$default_delete@V?$tuple@P8MainGame@@EAAXXZPEAV1@@std@@@2@@std@@QEAA@PEAV?$tuple@P8MainGame@@EAAXXZPEAV1@@1@@Z PROC ; std::unique_ptr<std::tuple<void (__cdecl MainGame::*)(void),MainGame *>,std::default_delete<std::tuple<void (__cdecl MainGame::*)(void),MainGame *> > >::unique_ptr<std::tuple<void (__cdecl MainGame::*)(void),MainGame *>,std::default_delete<std::tuple<void (__cdecl MainGame::*)(void),MainGame *> > ><std::default_delete<std::tuple<void (__cdecl MainGame::*)(void),MainGame *> >,0>, COMDAT
; File c:\program files (x86)\microsoft visual studio\2017\community\vc\tools\msvc\14.16.27023\include\memory
; File c:\program files (x86)\microsoft visual studio\2017\community\vc\tools\msvc\14.16.27023\include\xutility
; Line 277
	mov	QWORD PTR [rcx], rdx
; File c:\program files (x86)\microsoft visual studio\2017\community\vc\tools\msvc\14.16.27023\include\memory
; Line 2213
	mov	rax, rcx
	ret	0
??$?0U?$default_delete@V?$tuple@P8MainGame@@EAAXXZPEAV1@@std@@@std@@$0A@@?$unique_ptr@V?$tuple@P8MainGame@@EAAXXZPEAV1@@std@@U?$default_delete@V?$tuple@P8MainGame@@EAAXXZPEAV1@@std@@@2@@std@@QEAA@PEAV?$tuple@P8MainGame@@EAAXXZPEAV1@@1@@Z ENDP ; std::unique_ptr<std::tuple<void (__cdecl MainGame::*)(void),MainGame *>,std::default_delete<std::tuple<void (__cdecl MainGame::*)(void),MainGame *> > >::unique_ptr<std::tuple<void (__cdecl MainGame::*)(void),MainGame *>,std::default_delete<std::tuple<void (__cdecl MainGame::*)(void),MainGame *> > ><std::default_delete<std::tuple<void (__cdecl MainGame::*)(void),MainGame *> >,0>
_TEXT	ENDS
; Function compile flags: /Ogtpy
;	COMDAT ??$forward@V?$unique_ptr@V?$tuple@P8MainGame@@EAAXXZPEAV1@@std@@U?$default_delete@V?$tuple@P8MainGame@@EAAXXZPEAV1@@std@@@2@@std@@@std@@YA$$QEAV?$unique_ptr@V?$tuple@P8MainGame@@EAAXXZPEAV1@@std@@U?$default_delete@V?$tuple@P8MainGame@@EAAXXZPEAV1@@std@@@2@@0@AEAV10@@Z
_TEXT	SEGMENT
_Arg$ = 8
??$forward@V?$unique_ptr@V?$tuple@P8MainGame@@EAAXXZPEAV1@@std@@U?$default_delete@V?$tuple@P8MainGame@@EAAXXZPEAV1@@std@@@2@@std@@@std@@YA$$QEAV?$unique_ptr@V?$tuple@P8MainGame@@EAAXXZPEAV1@@std@@U?$default_delete@V?$tuple@P8MainGame@@EAAXXZPEAV1@@std@@@2@@0@AEAV10@@Z PROC ; std::forward<std::unique_ptr<std::tuple<void (__cdecl MainGame::*)(void),MainGame *>,std::default_delete<std::tuple<void (__cdecl MainGame::*)(void),MainGame *> > > >, COMDAT
; File c:\program files (x86)\microsoft visual studio\2017\community\vc\tools\msvc\14.16.27023\include\type_traits
; Line 1574
	mov	rax, rcx
; Line 1575
	ret	0
??$forward@V?$unique_ptr@V?$tuple@P8MainGame@@EAAXXZPEAV1@@std@@U?$default_delete@V?$tuple@P8MainGame@@EAAXXZPEAV1@@std@@@2@@std@@@std@@YA$$QEAV?$unique_ptr@V?$tuple@P8MainGame@@EAAXXZPEAV1@@std@@U?$default_delete@V?$tuple@P8MainGame@@EAAXXZPEAV1@@std@@@2@@0@AEAV10@@Z ENDP ; std::forward<std::unique_ptr<std::tuple<void (__cdecl MainGame::*)(void),MainGame *>,std::default_delete<std::tuple<void (__cdecl MainGame::*)(void),MainGame *> > > >
_TEXT	ENDS
; Function compile flags: /Ogtpy
;	COMDAT ??$?0V?$unique_ptr@V?$tuple@P8MainGame@@EAAXXZPEAV1@@std@@U?$default_delete@V?$tuple@P8MainGame@@EAAXXZPEAV1@@std@@@2@@std@@@?$_LaunchPad@V?$unique_ptr@V?$tuple@P8MainGame@@EAAXXZPEAV1@@std@@U?$default_delete@V?$tuple@P8MainGame@@EAAXXZPEAV1@@std@@@2@@std@@@std@@QEAA@$$QEAV?$unique_ptr@V?$tuple@P8MainGame@@EAAXXZPEAV1@@std@@U?$default_delete@V?$tuple@P8MainGame@@EAAXXZPEAV1@@std@@@2@@1@@Z
_TEXT	SEGMENT
$T12 = 32
this$GSCopy$ = 40
_Cnd_cleaner$13 = 40
_Mtx_cleaner$14 = 56
__$ArrayPad$ = 72
this$ = 96
_Tgt$ = 104
??$?0V?$unique_ptr@V?$tuple@P8MainGame@@EAAXXZPEAV1@@std@@U?$default_delete@V?$tuple@P8MainGame@@EAAXXZPEAV1@@std@@@2@@std@@@?$_LaunchPad@V?$unique_ptr@V?$tuple@P8MainGame@@EAAXXZPEAV1@@std@@U?$default_delete@V?$tuple@P8MainGame@@EAAXXZPEAV1@@std@@@2@@std@@@std@@QEAA@$$QEAV?$unique_ptr@V?$tuple@P8MainGame@@EAAXXZPEAV1@@std@@U?$default_delete@V?$tuple@P8MainGame@@EAAXXZPEAV1@@std@@@2@@1@@Z PROC ; std::_LaunchPad<std::unique_ptr<std::tuple<void (__cdecl MainGame::*)(void),MainGame *>,std::default_delete<std::tuple<void (__cdecl MainGame::*)(void),MainGame *> > > >::_LaunchPad<std::unique_ptr<std::tuple<void (__cdecl MainGame::*)(void),MainGame *>,std::default_delete<std::tuple<void (__cdecl MainGame::*)(void),MainGame *> > > ><std::unique_ptr<std::tuple<void (__cdecl MainGame::*)(void),MainGame *>,std::default_delete<std::tuple<void (__cdecl MainGame::*)(void),MainGame *> > > >, COMDAT
; File c:\program files (x86)\microsoft visual studio\2017\community\vc\tools\msvc\14.16.27023\include\thr\xthread
; Line 225
$LN76:
	push	rdi
	sub	rsp, 80					; 00000050H
	mov	QWORD PTR $T12[rsp], -2
	mov	QWORD PTR [rsp+112], rbx
	mov	QWORD PTR [rsp+120], rsi
	mov	rax, QWORD PTR __security_cookie
	xor	rax, rsp
	mov	QWORD PTR __$ArrayPad$[rsp], rax
	mov	rdi, rdx
	mov	rbx, rcx
	mov	QWORD PTR this$GSCopy$[rsp], rcx
; Line 92
	add	rcx, 8
	call	QWORD PTR __imp__Cnd_init
; Line 36
	test	eax, eax
	je	SHORT $LN12@
; Line 37
	mov	ecx, eax
	call	QWORD PTR __imp_?_Throw_C_error@std@@YAXH@Z
$LN12@:
	xor	eax, eax
	mov	QWORD PTR _Cnd_cleaner$13[rsp], rax
; Line 172
	mov	rax, QWORD PTR [rbx+8]
; Line 120
	mov	BYTE PTR _Cnd_cleaner$13[rsp], 1
	mov	QWORD PTR _Cnd_cleaner$13[rsp+8], rax
; Line 67
	mov	edx, 1
	lea	rcx, QWORD PTR [rbx+16]
	call	QWORD PTR __imp__Mtx_init
; Line 36
	test	eax, eax
	je	SHORT $LN21@
; Line 37
	mov	ecx, eax
	call	QWORD PTR __imp_?_Throw_C_error@std@@YAXH@Z
$LN21@:
	xor	eax, eax
	mov	QWORD PTR _Mtx_cleaner$14[rsp], rax
; Line 174
	mov	rcx, QWORD PTR [rbx+16]
; Line 144
	mov	BYTE PTR _Mtx_cleaner$14[rsp], 1
	mov	QWORD PTR _Mtx_cleaner$14[rsp+8], rcx
; Line 175
	mov	BYTE PTR [rbx+24], al
; Line 72
	call	QWORD PTR __imp__Mtx_lock
; Line 36
	test	eax, eax
	je	SHORT $LN30@
; Line 37
	mov	ecx, eax
	call	QWORD PTR __imp_?_Throw_C_error@std@@YAXH@Z
	npad	1
$LN30@:
; Line 225
	lea	rax, OFFSET FLAT:??_7?$_LaunchPad@V?$unique_ptr@V?$tuple@P8MainGame@@EAAXXZPEAV1@@std@@U?$default_delete@V?$tuple@P8MainGame@@EAAXXZPEAV1@@std@@@2@@std@@@std@@6B@
	mov	QWORD PTR [rbx], rax
; File c:\program files (x86)\microsoft visual studio\2017\community\vc\tools\msvc\14.16.27023\include\memory
; Line 2312
	mov	rcx, QWORD PTR [rdi]
; Line 2323
	mov	QWORD PTR [rdi], 0
; File c:\program files (x86)\microsoft visual studio\2017\community\vc\tools\msvc\14.16.27023\include\xutility
; Line 286
	mov	QWORD PTR [rbx+32], rcx
; File c:\program files (x86)\microsoft visual studio\2017\community\vc\tools\msvc\14.16.27023\include\thr\xthread
; Line 226
	mov	rax, rbx
	mov	rcx, QWORD PTR __$ArrayPad$[rsp]
	xor	rcx, rsp
	call	__security_check_cookie
	mov	rbx, QWORD PTR [rsp+112]
	mov	rsi, QWORD PTR [rsp+120]
	add	rsp, 80					; 00000050H
	pop	rdi
	ret	0
??$?0V?$unique_ptr@V?$tuple@P8MainGame@@EAAXXZPEAV1@@std@@U?$default_delete@V?$tuple@P8MainGame@@EAAXXZPEAV1@@std@@@2@@std@@@?$_LaunchPad@V?$unique_ptr@V?$tuple@P8MainGame@@EAAXXZPEAV1@@std@@U?$default_delete@V?$tuple@P8MainGame@@EAAXXZPEAV1@@std@@@2@@std@@@std@@QEAA@$$QEAV?$unique_ptr@V?$tuple@P8MainGame@@EAAXXZPEAV1@@std@@U?$default_delete@V?$tuple@P8MainGame@@EAAXXZPEAV1@@std@@@2@@1@@Z ENDP ; std::_LaunchPad<std::unique_ptr<std::tuple<void (__cdecl MainGame::*)(void),MainGame *>,std::default_delete<std::tuple<void (__cdecl MainGame::*)(void),MainGame *> > > >::_LaunchPad<std::unique_ptr<std::tuple<void (__cdecl MainGame::*)(void),MainGame *>,std::default_delete<std::tuple<void (__cdecl MainGame::*)(void),MainGame *> > > ><std::unique_ptr<std::tuple<void (__cdecl MainGame::*)(void),MainGame *>,std::default_delete<std::tuple<void (__cdecl MainGame::*)(void),MainGame *> > > >
_TEXT	ENDS
;	COMDAT text$x
text$x	SEGMENT
$T12 = 32
this$GSCopy$ = 40
_Cnd_cleaner$13 = 40
_Mtx_cleaner$14 = 56
__$ArrayPad$ = 72
this$ = 96
_Tgt$ = 104
?dtor$2@?0???$?0V?$unique_ptr@V?$tuple@P8MainGame@@EAAXXZPEAV1@@std@@U?$default_delete@V?$tuple@P8MainGame@@EAAXXZPEAV1@@std@@@2@@std@@@?$_LaunchPad@V?$unique_ptr@V?$tuple@P8MainGame@@EAAXXZPEAV1@@std@@U?$default_delete@V?$tuple@P8MainGame@@EAAXXZPEAV1@@std@@@2@@std@@@std@@QEAA@$$QEAV?$unique_ptr@V?$tuple@P8MainGame@@EAAXXZPEAV1@@std@@U?$default_delete@V?$tuple@P8MainGame@@EAAXXZPEAV1@@std@@@2@@1@@Z@4HA PROC ; `std::_LaunchPad<std::unique_ptr<std::tuple<void (__cdecl MainGame::*)(void),MainGame *>,std::default_delete<std::tuple<void (__cdecl MainGame::*)(void),MainGame *> > > >::_LaunchPad<std::unique_ptr<std::tuple<void (__cdecl MainGame::*)(void),MainGame *>,std::default_delete<std::tuple<void (__cdecl MainGame::*)(void),MainGame *> > > ><std::unique_ptr<std::tuple<void (__cdecl MainGame::*)(void),MainGame *>,std::default_delete<std::tuple<void (__cdecl MainGame::*)(void),MainGame *> > > >'::`1'::dtor$2
	lea	rcx, QWORD PTR _Cnd_cleaner$13[rdx]
	jmp	??1_Auto_cnd@std@@QEAA@XZ		; std::_Auto_cnd::~_Auto_cnd
?dtor$2@?0???$?0V?$unique_ptr@V?$tuple@P8MainGame@@EAAXXZPEAV1@@std@@U?$default_delete@V?$tuple@P8MainGame@@EAAXXZPEAV1@@std@@@2@@std@@@?$_LaunchPad@V?$unique_ptr@V?$tuple@P8MainGame@@EAAXXZPEAV1@@std@@U?$default_delete@V?$tuple@P8MainGame@@EAAXXZPEAV1@@std@@@2@@std@@@std@@QEAA@$$QEAV?$unique_ptr@V?$tuple@P8MainGame@@EAAXXZPEAV1@@std@@U?$default_delete@V?$tuple@P8MainGame@@EAAXXZPEAV1@@std@@@2@@1@@Z@4HA ENDP ; `std::_LaunchPad<std::unique_ptr<std::tuple<void (__cdecl MainGame::*)(void),MainGame *>,std::default_delete<std::tuple<void (__cdecl MainGame::*)(void),MainGame *> > > >::_LaunchPad<std::unique_ptr<std::tuple<void (__cdecl MainGame::*)(void),MainGame *>,std::default_delete<std::tuple<void (__cdecl MainGame::*)(void),MainGame *> > > ><std::unique_ptr<std::tuple<void (__cdecl MainGame::*)(void),MainGame *>,std::default_delete<std::tuple<void (__cdecl MainGame::*)(void),MainGame *> > > >'::`1'::dtor$2
$T12 = 32
this$GSCopy$ = 40
_Cnd_cleaner$13 = 40
_Mtx_cleaner$14 = 56
__$ArrayPad$ = 72
this$ = 96
_Tgt$ = 104
?dtor$3@?0???$?0V?$unique_ptr@V?$tuple@P8MainGame@@EAAXXZPEAV1@@std@@U?$default_delete@V?$tuple@P8MainGame@@EAAXXZPEAV1@@std@@@2@@std@@@?$_LaunchPad@V?$unique_ptr@V?$tuple@P8MainGame@@EAAXXZPEAV1@@std@@U?$default_delete@V?$tuple@P8MainGame@@EAAXXZPEAV1@@std@@@2@@std@@@std@@QEAA@$$QEAV?$unique_ptr@V?$tuple@P8MainGame@@EAAXXZPEAV1@@std@@U?$default_delete@V?$tuple@P8MainGame@@EAAXXZPEAV1@@std@@@2@@1@@Z@4HA PROC ; `std::_LaunchPad<std::unique_ptr<std::tuple<void (__cdecl MainGame::*)(void),MainGame *>,std::default_delete<std::tuple<void (__cdecl MainGame::*)(void),MainGame *> > > >::_LaunchPad<std::unique_ptr<std::tuple<void (__cdecl MainGame::*)(void),MainGame *>,std::default_delete<std::tuple<void (__cdecl MainGame::*)(void),MainGame *> > > ><std::unique_ptr<std::tuple<void (__cdecl MainGame::*)(void),MainGame *>,std::default_delete<std::tuple<void (__cdecl MainGame::*)(void),MainGame *> > > >'::`1'::dtor$3
	lea	rcx, QWORD PTR _Mtx_cleaner$14[rdx]
	jmp	??1_Auto_mtx@std@@QEAA@XZ		; std::_Auto_mtx::~_Auto_mtx
?dtor$3@?0???$?0V?$unique_ptr@V?$tuple@P8MainGame@@EAAXXZPEAV1@@std@@U?$default_delete@V?$tuple@P8MainGame@@EAAXXZPEAV1@@std@@@2@@std@@@?$_LaunchPad@V?$unique_ptr@V?$tuple@P8MainGame@@EAAXXZPEAV1@@std@@U?$default_delete@V?$tuple@P8MainGame@@EAAXXZPEAV1@@std@@@2@@std@@@std@@QEAA@$$QEAV?$unique_ptr@V?$tuple@P8MainGame@@EAAXXZPEAV1@@std@@U?$default_delete@V?$tuple@P8MainGame@@EAAXXZPEAV1@@std@@@2@@1@@Z@4HA ENDP ; `std::_LaunchPad<std::unique_ptr<std::tuple<void (__cdecl MainGame::*)(void),MainGame *>,std::default_delete<std::tuple<void (__cdecl MainGame::*)(void),MainGame *> > > >::_LaunchPad<std::unique_ptr<std::tuple<void (__cdecl MainGame::*)(void),MainGame *>,std::default_delete<std::tuple<void (__cdecl MainGame::*)(void),MainGame *> > > ><std::unique_ptr<std::tuple<void (__cdecl MainGame::*)(void),MainGame *>,std::default_delete<std::tuple<void (__cdecl MainGame::*)(void),MainGame *> > > >'::`1'::dtor$3
text$x	ENDS
; Function compile flags: /Ogtpy
;	COMDAT text$x
text$x	SEGMENT
$T12 = 32
this$GSCopy$ = 40
_Cnd_cleaner$13 = 40
_Mtx_cleaner$14 = 56
__$ArrayPad$ = 72
this$ = 96
_Tgt$ = 104
?dtor$2@?0???$?0V?$unique_ptr@V?$tuple@P8MainGame@@EAAXXZPEAV1@@std@@U?$default_delete@V?$tuple@P8MainGame@@EAAXXZPEAV1@@std@@@2@@std@@@?$_LaunchPad@V?$unique_ptr@V?$tuple@P8MainGame@@EAAXXZPEAV1@@std@@U?$default_delete@V?$tuple@P8MainGame@@EAAXXZPEAV1@@std@@@2@@std@@@std@@QEAA@$$QEAV?$unique_ptr@V?$tuple@P8MainGame@@EAAXXZPEAV1@@std@@U?$default_delete@V?$tuple@P8MainGame@@EAAXXZPEAV1@@std@@@2@@1@@Z@4HA PROC ; `std::_LaunchPad<std::unique_ptr<std::tuple<void (__cdecl MainGame::*)(void),MainGame *>,std::default_delete<std::tuple<void (__cdecl MainGame::*)(void),MainGame *> > > >::_LaunchPad<std::unique_ptr<std::tuple<void (__cdecl MainGame::*)(void),MainGame *>,std::default_delete<std::tuple<void (__cdecl MainGame::*)(void),MainGame *> > > ><std::unique_ptr<std::tuple<void (__cdecl MainGame::*)(void),MainGame *>,std::default_delete<std::tuple<void (__cdecl MainGame::*)(void),MainGame *> > > >'::`1'::dtor$2
	lea	rcx, QWORD PTR _Cnd_cleaner$13[rdx]
	jmp	??1_Auto_cnd@std@@QEAA@XZ		; std::_Auto_cnd::~_Auto_cnd
?dtor$2@?0???$?0V?$unique_ptr@V?$tuple@P8MainGame@@EAAXXZPEAV1@@std@@U?$default_delete@V?$tuple@P8MainGame@@EAAXXZPEAV1@@std@@@2@@std@@@?$_LaunchPad@V?$unique_ptr@V?$tuple@P8MainGame@@EAAXXZPEAV1@@std@@U?$default_delete@V?$tuple@P8MainGame@@EAAXXZPEAV1@@std@@@2@@std@@@std@@QEAA@$$QEAV?$unique_ptr@V?$tuple@P8MainGame@@EAAXXZPEAV1@@std@@U?$default_delete@V?$tuple@P8MainGame@@EAAXXZPEAV1@@std@@@2@@1@@Z@4HA ENDP ; `std::_LaunchPad<std::unique_ptr<std::tuple<void (__cdecl MainGame::*)(void),MainGame *>,std::default_delete<std::tuple<void (__cdecl MainGame::*)(void),MainGame *> > > >::_LaunchPad<std::unique_ptr<std::tuple<void (__cdecl MainGame::*)(void),MainGame *>,std::default_delete<std::tuple<void (__cdecl MainGame::*)(void),MainGame *> > > ><std::unique_ptr<std::tuple<void (__cdecl MainGame::*)(void),MainGame *>,std::default_delete<std::tuple<void (__cdecl MainGame::*)(void),MainGame *> > > >'::`1'::dtor$2
text$x	ENDS
; Function compile flags: /Ogtpy
;	COMDAT text$x
text$x	SEGMENT
$T12 = 32
this$GSCopy$ = 40
_Cnd_cleaner$13 = 40
_Mtx_cleaner$14 = 56
__$ArrayPad$ = 72
this$ = 96
_Tgt$ = 104
?dtor$3@?0???$?0V?$unique_ptr@V?$tuple@P8MainGame@@EAAXXZPEAV1@@std@@U?$default_delete@V?$tuple@P8MainGame@@EAAXXZPEAV1@@std@@@2@@std@@@?$_LaunchPad@V?$unique_ptr@V?$tuple@P8MainGame@@EAAXXZPEAV1@@std@@U?$default_delete@V?$tuple@P8MainGame@@EAAXXZPEAV1@@std@@@2@@std@@@std@@QEAA@$$QEAV?$unique_ptr@V?$tuple@P8MainGame@@EAAXXZPEAV1@@std@@U?$default_delete@V?$tuple@P8MainGame@@EAAXXZPEAV1@@std@@@2@@1@@Z@4HA PROC ; `std::_LaunchPad<std::unique_ptr<std::tuple<void (__cdecl MainGame::*)(void),MainGame *>,std::default_delete<std::tuple<void (__cdecl MainGame::*)(void),MainGame *> > > >::_LaunchPad<std::unique_ptr<std::tuple<void (__cdecl MainGame::*)(void),MainGame *>,std::default_delete<std::tuple<void (__cdecl MainGame::*)(void),MainGame *> > > ><std::unique_ptr<std::tuple<void (__cdecl MainGame::*)(void),MainGame *>,std::default_delete<std::tuple<void (__cdecl MainGame::*)(void),MainGame *> > > >'::`1'::dtor$3
	lea	rcx, QWORD PTR _Mtx_cleaner$14[rdx]
	jmp	??1_Auto_mtx@std@@QEAA@XZ		; std::_Auto_mtx::~_Auto_mtx
?dtor$3@?0???$?0V?$unique_ptr@V?$tuple@P8MainGame@@EAAXXZPEAV1@@std@@U?$default_delete@V?$tuple@P8MainGame@@EAAXXZPEAV1@@std@@@2@@std@@@?$_LaunchPad@V?$unique_ptr@V?$tuple@P8MainGame@@EAAXXZPEAV1@@std@@U?$default_delete@V?$tuple@P8MainGame@@EAAXXZPEAV1@@std@@@2@@std@@@std@@QEAA@$$QEAV?$unique_ptr@V?$tuple@P8MainGame@@EAAXXZPEAV1@@std@@U?$default_delete@V?$tuple@P8MainGame@@EAAXXZPEAV1@@std@@@2@@1@@Z@4HA ENDP ; `std::_LaunchPad<std::unique_ptr<std::tuple<void (__cdecl MainGame::*)(void),MainGame *>,std::default_delete<std::tuple<void (__cdecl MainGame::*)(void),MainGame *> > > >::_LaunchPad<std::unique_ptr<std::tuple<void (__cdecl MainGame::*)(void),MainGame *>,std::default_delete<std::tuple<void (__cdecl MainGame::*)(void),MainGame *> > > ><std::unique_ptr<std::tuple<void (__cdecl MainGame::*)(void),MainGame *>,std::default_delete<std::tuple<void (__cdecl MainGame::*)(void),MainGame *> > > >'::`1'::dtor$3
text$x	ENDS
; Function compile flags: /Ogtpy
;	COMDAT ??$_Execute@$0A@$00@?$_LaunchPad@V?$unique_ptr@V?$tuple@P8MainGame@@EAAXXZPEAV1@@std@@U?$default_delete@V?$tuple@P8MainGame@@EAAXXZPEAV1@@std@@@2@@std@@@std@@CAXAEAV?$tuple@P8MainGame@@EAAXXZPEAV1@@1@U?$integer_sequence@_K$0A@$00@1@@Z
_TEXT	SEGMENT
_Tup$ = 8
__formal$dead$ = 16
??$_Execute@$0A@$00@?$_LaunchPad@V?$unique_ptr@V?$tuple@P8MainGame@@EAAXXZPEAV1@@std@@U?$default_delete@V?$tuple@P8MainGame@@EAAXXZPEAV1@@std@@@2@@std@@@std@@CAXAEAV?$tuple@P8MainGame@@EAAXXZPEAV1@@1@U?$integer_sequence@_K$0A@$00@1@@Z PROC ; std::_LaunchPad<std::unique_ptr<std::tuple<void (__cdecl MainGame::*)(void),MainGame *>,std::default_delete<std::tuple<void (__cdecl MainGame::*)(void),MainGame *> > > >::_Execute<0,1>, COMDAT
; File c:\program files (x86)\microsoft visual studio\2017\community\vc\tools\msvc\14.16.27023\include\thr\xthread
; Line 237
	mov	rax, rcx
; File c:\program files (x86)\microsoft visual studio\2017\community\vc\tools\msvc\14.16.27023\include\type_traits
	mov	rcx, QWORD PTR [rcx]
	rex_jmp	QWORD PTR [rax+8]
??$_Execute@$0A@$00@?$_LaunchPad@V?$unique_ptr@V?$tuple@P8MainGame@@EAAXXZPEAV1@@std@@U?$default_delete@V?$tuple@P8MainGame@@EAAXXZPEAV1@@std@@@2@@std@@@std@@CAXAEAV?$tuple@P8MainGame@@EAAXXZPEAV1@@1@U?$integer_sequence@_K$0A@$00@1@@Z ENDP ; std::_LaunchPad<std::unique_ptr<std::tuple<void (__cdecl MainGame::*)(void),MainGame *>,std::default_delete<std::tuple<void (__cdecl MainGame::*)(void),MainGame *> > > >::_Execute<0,1>
_TEXT	ENDS
; Function compile flags: /Ogtpy
;	COMDAT ??$forward@U?$default_delete@V?$tuple@P8MainGame@@EAAXXZPEAV1@@std@@@std@@@std@@YA$$QEAU?$default_delete@V?$tuple@P8MainGame@@EAAXXZPEAV1@@std@@@0@AEAU10@@Z
_TEXT	SEGMENT
_Arg$ = 8
??$forward@U?$default_delete@V?$tuple@P8MainGame@@EAAXXZPEAV1@@std@@@std@@@std@@YA$$QEAU?$default_delete@V?$tuple@P8MainGame@@EAAXXZPEAV1@@std@@@0@AEAU10@@Z PROC ; std::forward<std::default_delete<std::tuple<void (__cdecl MainGame::*)(void),MainGame *> > >, COMDAT
; File c:\program files (x86)\microsoft visual studio\2017\community\vc\tools\msvc\14.16.27023\include\type_traits
; Line 1574
	mov	rax, rcx
; Line 1575
	ret	0
??$forward@U?$default_delete@V?$tuple@P8MainGame@@EAAXXZPEAV1@@std@@@std@@@std@@YA$$QEAU?$default_delete@V?$tuple@P8MainGame@@EAAXXZPEAV1@@std@@@0@AEAU10@@Z ENDP ; std::forward<std::default_delete<std::tuple<void (__cdecl MainGame::*)(void),MainGame *> > >
_TEXT	ENDS
; Function compile flags: /Ogtpy
;	COMDAT ??$?0PEAV?$tuple@P8MainGame@@EAAXXZPEAV1@@std@@U?$default_delete@V?$tuple@P8MainGame@@EAAXXZPEAV1@@std@@@1@@?$_Unique_ptr_base@V?$tuple@P8MainGame@@EAAXXZPEAV1@@std@@U?$default_delete@V?$tuple@P8MainGame@@EAAXXZPEAV1@@std@@@2@@std@@QEAA@PEAV?$tuple@P8MainGame@@EAAXXZPEAV1@@1@$$QEAU?$default_delete@V?$tuple@P8MainGame@@EAAXXZPEAV1@@std@@@1@@Z
_TEXT	SEGMENT
this$ = 8
_Ptr$ = 16
_Dt$dead$ = 24
??$?0PEAV?$tuple@P8MainGame@@EAAXXZPEAV1@@std@@U?$default_delete@V?$tuple@P8MainGame@@EAAXXZPEAV1@@std@@@1@@?$_Unique_ptr_base@V?$tuple@P8MainGame@@EAAXXZPEAV1@@std@@U?$default_delete@V?$tuple@P8MainGame@@EAAXXZPEAV1@@std@@@2@@std@@QEAA@PEAV?$tuple@P8MainGame@@EAAXXZPEAV1@@1@$$QEAU?$default_delete@V?$tuple@P8MainGame@@EAAXXZPEAV1@@std@@@1@@Z PROC ; std::_Unique_ptr_base<std::tuple<void (__cdecl MainGame::*)(void),MainGame *>,std::default_delete<std::tuple<void (__cdecl MainGame::*)(void),MainGame *> > >::_Unique_ptr_base<std::tuple<void (__cdecl MainGame::*)(void),MainGame *>,std::default_delete<std::tuple<void (__cdecl MainGame::*)(void),MainGame *> > ><std::tuple<void (__cdecl MainGame::*)(void),MainGame *> *,std::default_delete<std::tuple<void (__cdecl MainGame::*)(void),MainGame *> > >, COMDAT
; File c:\program files (x86)\microsoft visual studio\2017\community\vc\tools\msvc\14.16.27023\include\memory
; File c:\program files (x86)\microsoft visual studio\2017\community\vc\tools\msvc\14.16.27023\include\xutility
; Line 286
	mov	QWORD PTR [rcx], rdx
; File c:\program files (x86)\microsoft visual studio\2017\community\vc\tools\msvc\14.16.27023\include\memory
; Line 2139
	mov	rax, rcx
	ret	0
??$?0PEAV?$tuple@P8MainGame@@EAAXXZPEAV1@@std@@U?$default_delete@V?$tuple@P8MainGame@@EAAXXZPEAV1@@std@@@1@@?$_Unique_ptr_base@V?$tuple@P8MainGame@@EAAXXZPEAV1@@std@@U?$default_delete@V?$tuple@P8MainGame@@EAAXXZPEAV1@@std@@@2@@std@@QEAA@PEAV?$tuple@P8MainGame@@EAAXXZPEAV1@@1@$$QEAU?$default_delete@V?$tuple@P8MainGame@@EAAXXZPEAV1@@std@@@1@@Z ENDP ; std::_Unique_ptr_base<std::tuple<void (__cdecl MainGame::*)(void),MainGame *>,std::default_delete<std::tuple<void (__cdecl MainGame::*)(void),MainGame *> > >::_Unique_ptr_base<std::tuple<void (__cdecl MainGame::*)(void),MainGame *>,std::default_delete<std::tuple<void (__cdecl MainGame::*)(void),MainGame *> > ><std::tuple<void (__cdecl MainGame::*)(void),MainGame *> *,std::default_delete<std::tuple<void (__cdecl MainGame::*)(void),MainGame *> > >
_TEXT	ENDS
; Function compile flags: /Ogtpy
;	COMDAT ??$?0U_Exact_args_t@std@@P8MainGame@@EAAXXZPEAV2@$0A@@?$tuple@P8MainGame@@EAAXXZPEAV1@@std@@QEAA@U_Exact_args_t@1@$$QEAP8MainGame@@EAAXXZ$$QEAPEAV3@@Z
_TEXT	SEGMENT
this$ = 8
__formal$dead$ = 16
_This_arg$ = 24
<_Rest_arg_0>$ = 32
??$?0U_Exact_args_t@std@@P8MainGame@@EAAXXZPEAV2@$0A@@?$tuple@P8MainGame@@EAAXXZPEAV1@@std@@QEAA@U_Exact_args_t@1@$$QEAP8MainGame@@EAAXXZ$$QEAPEAV3@@Z PROC ; std::tuple<void (__cdecl MainGame::*)(void),MainGame *>::tuple<void (__cdecl MainGame::*)(void),MainGame *><std::_Exact_args_t,void (__cdecl MainGame::*)(void),MainGame *,0>, COMDAT
; File c:\program files (x86)\microsoft visual studio\2017\community\vc\tools\msvc\14.16.27023\include\tuple
; Line 236
	mov	rax, QWORD PTR [r9]
	mov	QWORD PTR [rcx], rax
	mov	rax, QWORD PTR [r8]
	mov	QWORD PTR [rcx+8], rax
; Line 360
	mov	rax, rcx
	ret	0
??$?0U_Exact_args_t@std@@P8MainGame@@EAAXXZPEAV2@$0A@@?$tuple@P8MainGame@@EAAXXZPEAV1@@std@@QEAA@U_Exact_args_t@1@$$QEAP8MainGame@@EAAXXZ$$QEAPEAV3@@Z ENDP ; std::tuple<void (__cdecl MainGame::*)(void),MainGame *>::tuple<void (__cdecl MainGame::*)(void),MainGame *><std::_Exact_args_t,void (__cdecl MainGame::*)(void),MainGame *,0>
_TEXT	ENDS
; Function compile flags: /Ogtpy
;	COMDAT ??$?0PEAV?$tuple@P8MainGame@@EAAXXZPEAV1@@std@@@?$_Unique_ptr_base@V?$tuple@P8MainGame@@EAAXXZPEAV1@@std@@U?$default_delete@V?$tuple@P8MainGame@@EAAXXZPEAV1@@std@@@2@@std@@QEAA@PEAV?$tuple@P8MainGame@@EAAXXZPEAV1@@1@@Z
_TEXT	SEGMENT
this$ = 8
_Ptr$ = 16
??$?0PEAV?$tuple@P8MainGame@@EAAXXZPEAV1@@std@@@?$_Unique_ptr_base@V?$tuple@P8MainGame@@EAAXXZPEAV1@@std@@U?$default_delete@V?$tuple@P8MainGame@@EAAXXZPEAV1@@std@@@2@@std@@QEAA@PEAV?$tuple@P8MainGame@@EAAXXZPEAV1@@1@@Z PROC ; std::_Unique_ptr_base<std::tuple<void (__cdecl MainGame::*)(void),MainGame *>,std::default_delete<std::tuple<void (__cdecl MainGame::*)(void),MainGame *> > >::_Unique_ptr_base<std::tuple<void (__cdecl MainGame::*)(void),MainGame *>,std::default_delete<std::tuple<void (__cdecl MainGame::*)(void),MainGame *> > ><std::tuple<void (__cdecl MainGame::*)(void),MainGame *> *>, COMDAT
; File c:\program files (x86)\microsoft visual studio\2017\community\vc\tools\msvc\14.16.27023\include\memory
; File c:\program files (x86)\microsoft visual studio\2017\community\vc\tools\msvc\14.16.27023\include\xutility
; Line 277
	mov	QWORD PTR [rcx], rdx
; File c:\program files (x86)\microsoft visual studio\2017\community\vc\tools\msvc\14.16.27023\include\memory
; Line 2145
	mov	rax, rcx
	ret	0
??$?0PEAV?$tuple@P8MainGame@@EAAXXZPEAV1@@std@@@?$_Unique_ptr_base@V?$tuple@P8MainGame@@EAAXXZPEAV1@@std@@U?$default_delete@V?$tuple@P8MainGame@@EAAXXZPEAV1@@std@@@2@@std@@QEAA@PEAV?$tuple@P8MainGame@@EAAXXZPEAV1@@1@@Z ENDP ; std::_Unique_ptr_base<std::tuple<void (__cdecl MainGame::*)(void),MainGame *>,std::default_delete<std::tuple<void (__cdecl MainGame::*)(void),MainGame *> > >::_Unique_ptr_base<std::tuple<void (__cdecl MainGame::*)(void),MainGame *>,std::default_delete<std::tuple<void (__cdecl MainGame::*)(void),MainGame *> > ><std::tuple<void (__cdecl MainGame::*)(void),MainGame *> *>
_TEXT	ENDS
; Function compile flags: /Ogtpy
;	COMDAT ??$get@$0A@P8MainGame@@EAAXXZPEAV1@@std@@YAAEAP8MainGame@@EAAXXZAEAV?$tuple@P8MainGame@@EAAXXZPEAV1@@0@@Z
_TEXT	SEGMENT
_Tuple$ = 8
??$get@$0A@P8MainGame@@EAAXXZPEAV1@@std@@YAAEAP8MainGame@@EAAXXZAEAV?$tuple@P8MainGame@@EAAXXZPEAV1@@0@@Z PROC ; std::get<0,void (__cdecl MainGame::*)(void),MainGame *>, COMDAT
; File c:\program files (x86)\microsoft visual studio\2017\community\vc\tools\msvc\14.16.27023\include\tuple
; Line 962
	lea	rax, QWORD PTR [rcx+8]
; Line 963
	ret	0
??$get@$0A@P8MainGame@@EAAXXZPEAV1@@std@@YAAEAP8MainGame@@EAAXXZAEAV?$tuple@P8MainGame@@EAAXXZPEAV1@@0@@Z ENDP ; std::get<0,void (__cdecl MainGame::*)(void),MainGame *>
_TEXT	ENDS
; Function compile flags: /Ogtpy
;	COMDAT ??$move@AEAP8MainGame@@EAAXXZ@std@@YA$$QEAP8MainGame@@EAAXXZAEAP81@EAAXXZ@Z
_TEXT	SEGMENT
_Arg$ = 8
??$move@AEAP8MainGame@@EAAXXZ@std@@YA$$QEAP8MainGame@@EAAXXZAEAP81@EAAXXZ@Z PROC ; std::move<void (__cdecl MainGame::*&)(void)>, COMDAT
; File c:\program files (x86)\microsoft visual studio\2017\community\vc\tools\msvc\14.16.27023\include\type_traits
; Line 1589
	mov	rax, rcx
; Line 1590
	ret	0
??$move@AEAP8MainGame@@EAAXXZ@std@@YA$$QEAP8MainGame@@EAAXXZAEAP81@EAAXXZ@Z ENDP ; std::move<void (__cdecl MainGame::*&)(void)>
_TEXT	ENDS
; Function compile flags: /Ogtpy
;	COMDAT ??$get@$00P8MainGame@@EAAXXZPEAV1@@std@@YAAEAPEAVMainGame@@AEAV?$tuple@P8MainGame@@EAAXXZPEAV1@@0@@Z
_TEXT	SEGMENT
_Tuple$ = 8
??$get@$00P8MainGame@@EAAXXZPEAV1@@std@@YAAEAPEAVMainGame@@AEAV?$tuple@P8MainGame@@EAAXXZPEAV1@@0@@Z PROC ; std::get<1,void (__cdecl MainGame::*)(void),MainGame *>, COMDAT
; File c:\program files (x86)\microsoft visual studio\2017\community\vc\tools\msvc\14.16.27023\include\tuple
; Line 962
	mov	rax, rcx
; Line 963
	ret	0
??$get@$00P8MainGame@@EAAXXZPEAV1@@std@@YAAEAPEAVMainGame@@AEAV?$tuple@P8MainGame@@EAAXXZPEAV1@@0@@Z ENDP ; std::get<1,void (__cdecl MainGame::*)(void),MainGame *>
_TEXT	ENDS
; Function compile flags: /Ogtpy
;	COMDAT ??$move@AEAPEAVMainGame@@@std@@YA$$QEAPEAVMainGame@@AEAPEAV1@@Z
_TEXT	SEGMENT
_Arg$ = 8
??$move@AEAPEAVMainGame@@@std@@YA$$QEAPEAVMainGame@@AEAPEAV1@@Z PROC ; std::move<MainGame * &>, COMDAT
; File c:\program files (x86)\microsoft visual studio\2017\community\vc\tools\msvc\14.16.27023\include\type_traits
; Line 1589
	mov	rax, rcx
; Line 1590
	ret	0
??$move@AEAPEAVMainGame@@@std@@YA$$QEAPEAVMainGame@@AEAPEAV1@@Z ENDP ; std::move<MainGame * &>
_TEXT	ENDS
; Function compile flags: /Ogtpy
;	COMDAT ??$invoke@P8MainGame@@EAAXXZPEAV1@@std@@YAX$$QEAP8MainGame@@EAAXXZ$$QEAPEAV1@@Z
_TEXT	SEGMENT
_Obj$ = 8
<_Args_0>$ = 16
??$invoke@P8MainGame@@EAAXXZPEAV1@@std@@YAX$$QEAP8MainGame@@EAAXXZ$$QEAPEAV1@@Z PROC ; std::invoke<void (__cdecl MainGame::*)(void),MainGame *>, COMDAT
; File c:\program files (x86)\microsoft visual studio\2017\community\vc\tools\msvc\14.16.27023\include\type_traits
	mov	rax, rcx
	mov	rcx, QWORD PTR [rdx]
	rex_jmp	QWORD PTR [rax]
??$invoke@P8MainGame@@EAAXXZPEAV1@@std@@YAX$$QEAP8MainGame@@EAAXXZ$$QEAPEAV1@@Z ENDP ; std::invoke<void (__cdecl MainGame::*)(void),MainGame *>
_TEXT	ENDS
; Function compile flags: /Ogtpy
;	COMDAT ??$?0U?$default_delete@V?$tuple@P8MainGame@@EAAXXZPEAV1@@std@@@std@@AEAPEAV?$tuple@P8MainGame@@EAAXXZPEAV1@@1@@?$_Compressed_pair@U?$default_delete@V?$tuple@P8MainGame@@EAAXXZPEAV1@@std@@@std@@PEAV?$tuple@P8MainGame@@EAAXXZPEAV1@@2@$00@std@@QEAA@U_One_then_variadic_args_t@1@$$QEAU?$default_delete@V?$tuple@P8MainGame@@EAAXXZPEAV1@@std@@@1@AEAPEAV?$tuple@P8MainGame@@EAAXXZPEAV1@@1@@Z
_TEXT	SEGMENT
this$ = 8
__formal$dead$ = 16
_Val1$dead$ = 24
<_Val2_0>$ = 32
??$?0U?$default_delete@V?$tuple@P8MainGame@@EAAXXZPEAV1@@std@@@std@@AEAPEAV?$tuple@P8MainGame@@EAAXXZPEAV1@@1@@?$_Compressed_pair@U?$default_delete@V?$tuple@P8MainGame@@EAAXXZPEAV1@@std@@@std@@PEAV?$tuple@P8MainGame@@EAAXXZPEAV1@@2@$00@std@@QEAA@U_One_then_variadic_args_t@1@$$QEAU?$default_delete@V?$tuple@P8MainGame@@EAAXXZPEAV1@@std@@@1@AEAPEAV?$tuple@P8MainGame@@EAAXXZPEAV1@@1@@Z PROC ; std::_Compressed_pair<std::default_delete<std::tuple<void (__cdecl MainGame::*)(void),MainGame *> >,std::tuple<void (__cdecl MainGame::*)(void),MainGame *> *,1>::_Compressed_pair<std::default_delete<std::tuple<void (__cdecl MainGame::*)(void),MainGame *> >,std::tuple<void (__cdecl MainGame::*)(void),MainGame *> *,1><std::default_delete<std::tuple<void (__cdecl MainGame::*)(void),MainGame *> >,std::tuple<void (__cdecl MainGame::*)(void),MainGame *> * &>, COMDAT
; File c:\program files (x86)\microsoft visual studio\2017\community\vc\tools\msvc\14.16.27023\include\xutility
; Line 286
	mov	rax, QWORD PTR [r9]
	mov	QWORD PTR [rcx], rax
; Line 288
	mov	rax, rcx
	ret	0
??$?0U?$default_delete@V?$tuple@P8MainGame@@EAAXXZPEAV1@@std@@@std@@AEAPEAV?$tuple@P8MainGame@@EAAXXZPEAV1@@1@@?$_Compressed_pair@U?$default_delete@V?$tuple@P8MainGame@@EAAXXZPEAV1@@std@@@std@@PEAV?$tuple@P8MainGame@@EAAXXZPEAV1@@2@$00@std@@QEAA@U_One_then_variadic_args_t@1@$$QEAU?$default_delete@V?$tuple@P8MainGame@@EAAXXZPEAV1@@std@@@1@AEAPEAV?$tuple@P8MainGame@@EAAXXZPEAV1@@1@@Z ENDP ; std::_Compressed_pair<std::default_delete<std::tuple<void (__cdecl MainGame::*)(void),MainGame *> >,std::tuple<void (__cdecl MainGame::*)(void),MainGame *> *,1>::_Compressed_pair<std::default_delete<std::tuple<void (__cdecl MainGame::*)(void),MainGame *> >,std::tuple<void (__cdecl MainGame::*)(void),MainGame *> *,1><std::default_delete<std::tuple<void (__cdecl MainGame::*)(void),MainGame *> >,std::tuple<void (__cdecl MainGame::*)(void),MainGame *> * &>
_TEXT	ENDS
; Function compile flags: /Ogtpy
;	COMDAT ??$_Call@P8MainGame@@EAAXXZPEAV1@$$V@_Invoker_pmf_pointer@std@@SAXP8MainGame@@EAAXXZ$$QEAPEAV2@@Z
_TEXT	SEGMENT
_Pmf$ = 8
_Arg1$ = 16
??$_Call@P8MainGame@@EAAXXZPEAV1@$$V@_Invoker_pmf_pointer@std@@SAXP8MainGame@@EAAXXZ$$QEAPEAV2@@Z PROC ; std::_Invoker_pmf_pointer::_Call<void (__cdecl MainGame::*)(void),MainGame *>, COMDAT
; File c:\program files (x86)\microsoft visual studio\2017\community\vc\tools\msvc\14.16.27023\include\type_traits
	mov	rax, rcx
	mov	rcx, QWORD PTR [rdx]
	rex_jmp	rax
??$_Call@P8MainGame@@EAAXXZPEAV1@$$V@_Invoker_pmf_pointer@std@@SAXP8MainGame@@EAAXXZ$$QEAPEAV2@@Z ENDP ; std::_Invoker_pmf_pointer::_Call<void (__cdecl MainGame::*)(void),MainGame *>
_TEXT	ENDS
; Function compile flags: /Ogtpy
;	COMDAT ??$?0U_Exact_args_t@std@@PEAVMainGame@@$$V$0A@@?$tuple@PEAVMainGame@@@std@@QEAA@U_Exact_args_t@1@$$QEAPEAVMainGame@@@Z
_TEXT	SEGMENT
this$ = 8
__formal$dead$ = 16
_This_arg$ = 24
??$?0U_Exact_args_t@std@@PEAVMainGame@@$$V$0A@@?$tuple@PEAVMainGame@@@std@@QEAA@U_Exact_args_t@1@$$QEAPEAVMainGame@@@Z PROC ; std::tuple<MainGame *>::tuple<MainGame *><std::_Exact_args_t,MainGame *,0>, COMDAT
; File c:\program files (x86)\microsoft visual studio\2017\community\vc\tools\msvc\14.16.27023\include\tuple
; Line 236
	mov	rax, QWORD PTR [r8]
	mov	QWORD PTR [rcx], rax
; Line 360
	mov	rax, rcx
	ret	0
??$?0U_Exact_args_t@std@@PEAVMainGame@@$$V$0A@@?$tuple@PEAVMainGame@@@std@@QEAA@U_Exact_args_t@1@$$QEAPEAVMainGame@@@Z ENDP ; std::tuple<MainGame *>::tuple<MainGame *><std::_Exact_args_t,MainGame *,0>
_TEXT	ENDS
; Function compile flags: /Ogtpy
;	COMDAT ??$?0P8MainGame@@EAAXXZ@?$_Tuple_val@P8MainGame@@EAAXXZ@std@@QEAA@$$QEAP8MainGame@@EAAXXZ@Z
_TEXT	SEGMENT
this$ = 8
_Arg$ = 16
??$?0P8MainGame@@EAAXXZ@?$_Tuple_val@P8MainGame@@EAAXXZ@std@@QEAA@$$QEAP8MainGame@@EAAXXZ@Z PROC ; std::_Tuple_val<void (__cdecl MainGame::*)(void)>::_Tuple_val<void (__cdecl MainGame::*)(void)><void (__cdecl MainGame::*)(void)>, COMDAT
; File c:\program files (x86)\microsoft visual studio\2017\community\vc\tools\msvc\14.16.27023\include\tuple
; Line 236
	mov	rax, QWORD PTR [rdx]
	mov	QWORD PTR [rcx], rax
; Line 238
	mov	rax, rcx
	ret	0
??$?0P8MainGame@@EAAXXZ@?$_Tuple_val@P8MainGame@@EAAXXZ@std@@QEAA@$$QEAP8MainGame@@EAAXXZ@Z ENDP ; std::_Tuple_val<void (__cdecl MainGame::*)(void)>::_Tuple_val<void (__cdecl MainGame::*)(void)><void (__cdecl MainGame::*)(void)>
_TEXT	ENDS
; Function compile flags: /Ogtpy
;	COMDAT ??$?0AEAPEAV?$tuple@P8MainGame@@EAAXXZPEAV1@@std@@@?$_Compressed_pair@U?$default_delete@V?$tuple@P8MainGame@@EAAXXZPEAV1@@std@@@std@@PEAV?$tuple@P8MainGame@@EAAXXZPEAV1@@2@$00@std@@QEAA@U_Zero_then_variadic_args_t@1@AEAPEAV?$tuple@P8MainGame@@EAAXXZPEAV1@@1@@Z
_TEXT	SEGMENT
this$ = 8
__formal$dead$ = 16
<_Val2_0>$ = 24
??$?0AEAPEAV?$tuple@P8MainGame@@EAAXXZPEAV1@@std@@@?$_Compressed_pair@U?$default_delete@V?$tuple@P8MainGame@@EAAXXZPEAV1@@std@@@std@@PEAV?$tuple@P8MainGame@@EAAXXZPEAV1@@2@$00@std@@QEAA@U_Zero_then_variadic_args_t@1@AEAPEAV?$tuple@P8MainGame@@EAAXXZPEAV1@@1@@Z PROC ; std::_Compressed_pair<std::default_delete<std::tuple<void (__cdecl MainGame::*)(void),MainGame *> >,std::tuple<void (__cdecl MainGame::*)(void),MainGame *> *,1>::_Compressed_pair<std::default_delete<std::tuple<void (__cdecl MainGame::*)(void),MainGame *> >,std::tuple<void (__cdecl MainGame::*)(void),MainGame *> *,1><std::tuple<void (__cdecl MainGame::*)(void),MainGame *> * &>, COMDAT
; File c:\program files (x86)\microsoft visual studio\2017\community\vc\tools\msvc\14.16.27023\include\xutility
; Line 277
	mov	rax, QWORD PTR [r8]
	mov	QWORD PTR [rcx], rax
; Line 279
	mov	rax, rcx
	ret	0
??$?0AEAPEAV?$tuple@P8MainGame@@EAAXXZPEAV1@@std@@@?$_Compressed_pair@U?$default_delete@V?$tuple@P8MainGame@@EAAXXZPEAV1@@std@@@std@@PEAV?$tuple@P8MainGame@@EAAXXZPEAV1@@2@$00@std@@QEAA@U_Zero_then_variadic_args_t@1@AEAPEAV?$tuple@P8MainGame@@EAAXXZPEAV1@@1@@Z ENDP ; std::_Compressed_pair<std::default_delete<std::tuple<void (__cdecl MainGame::*)(void),MainGame *> >,std::tuple<void (__cdecl MainGame::*)(void),MainGame *> *,1>::_Compressed_pair<std::default_delete<std::tuple<void (__cdecl MainGame::*)(void),MainGame *> >,std::tuple<void (__cdecl MainGame::*)(void),MainGame *> *,1><std::tuple<void (__cdecl MainGame::*)(void),MainGame *> * &>
_TEXT	ENDS
; Function compile flags: /Ogtpy
;	COMDAT ??$forward@AEAPEAV?$tuple@P8MainGame@@EAAXXZPEAV1@@std@@@std@@YAAEAPEAV?$tuple@P8MainGame@@EAAXXZPEAV1@@0@AEAPEAV10@@Z
_TEXT	SEGMENT
_Arg$ = 8
??$forward@AEAPEAV?$tuple@P8MainGame@@EAAXXZPEAV1@@std@@@std@@YAAEAPEAV?$tuple@P8MainGame@@EAAXXZPEAV1@@0@AEAPEAV10@@Z PROC ; std::forward<std::tuple<void (__cdecl MainGame::*)(void),MainGame *> * &>, COMDAT
; File c:\program files (x86)\microsoft visual studio\2017\community\vc\tools\msvc\14.16.27023\include\type_traits
; Line 1574
	mov	rax, rcx
; Line 1575
	ret	0
??$forward@AEAPEAV?$tuple@P8MainGame@@EAAXXZPEAV1@@std@@@std@@YAAEAPEAV?$tuple@P8MainGame@@EAAXXZPEAV1@@0@AEAPEAV10@@Z ENDP ; std::forward<std::tuple<void (__cdecl MainGame::*)(void),MainGame *> * &>
_TEXT	ENDS
; Function compile flags: /Ogtpy
;	COMDAT ??$?0U_Exact_args_t@std@@$0A@@?$tuple@$$V@std@@QEAA@U_Exact_args_t@1@@Z
_TEXT	SEGMENT
this$ = 8
__formal$dead$ = 16
??$?0U_Exact_args_t@std@@$0A@@?$tuple@$$V@std@@QEAA@U_Exact_args_t@1@@Z PROC ; std::tuple<>::tuple<><std::_Exact_args_t,0>, COMDAT
; File c:\program files (x86)\microsoft visual studio\2017\community\vc\tools\msvc\14.16.27023\include\tuple
; Line 319
	mov	rax, rcx
	ret	0
??$?0U_Exact_args_t@std@@$0A@@?$tuple@$$V@std@@QEAA@U_Exact_args_t@1@@Z ENDP ; std::tuple<>::tuple<><std::_Exact_args_t,0>
_TEXT	ENDS
; Function compile flags: /Ogtpy
;	COMDAT ??$?0PEAVMainGame@@@?$_Tuple_val@PEAVMainGame@@@std@@QEAA@$$QEAPEAVMainGame@@@Z
_TEXT	SEGMENT
this$ = 8
_Arg$ = 16
??$?0PEAVMainGame@@@?$_Tuple_val@PEAVMainGame@@@std@@QEAA@$$QEAPEAVMainGame@@@Z PROC ; std::_Tuple_val<MainGame *>::_Tuple_val<MainGame *><MainGame *>, COMDAT
; File c:\program files (x86)\microsoft visual studio\2017\community\vc\tools\msvc\14.16.27023\include\tuple
; Line 236
	mov	rax, QWORD PTR [rdx]
	mov	QWORD PTR [rcx], rax
; Line 238
	mov	rax, rcx
	ret	0
??$?0PEAVMainGame@@@?$_Tuple_val@PEAVMainGame@@@std@@QEAA@$$QEAPEAVMainGame@@@Z ENDP ; std::_Tuple_val<MainGame *>::_Tuple_val<MainGame *><MainGame *>
_TEXT	ENDS
END
